

Microchip MPLAB XC8 Assembler V2.31 build 20201012212115 
                                                                                               Wed May 26 22:27:38 2021

Microchip MPLAB XC8 C Compiler v2.31 (Free license) build 20201012212115 Og1 
     1                           	processor	16F18344
     2                           	pagewidth 120
     3                           	opt	flic
     4                           	psect	idataBANK0,global,class=CODE,delta=2,noexec
     5                           	psect	stringtext1,global,class=STRCODE,delta=2,noexec
     6                           	psect	_time15_text,global,class=STRCODE,delta=2,noexec
     7                           	psect	_time14_text,global,class=STRCODE,delta=2,noexec
     8                           	psect	_time13_text,global,class=STRCODE,delta=2,noexec
     9                           	psect	_time12_text,global,class=STRCODE,delta=2,noexec
    10                           	psect	_time11_text,global,class=STRCODE,delta=2,noexec
    11                           	psect	_time10_text,global,class=STRCODE,delta=2,noexec
    12                           	psect	_time09_text,global,class=STRCODE,delta=2,noexec
    13                           	psect	_time08_text,global,class=STRCODE,delta=2,noexec
    14                           	psect	_time07_text,global,class=STRCODE,delta=2,noexec
    15                           	psect	_time06_text,global,class=STRCODE,delta=2,noexec
    16                           	psect	_time05_text,global,class=STRCODE,delta=2,noexec
    17                           	psect	_time04_text,global,class=STRCODE,delta=2,noexec
    18                           	psect	_time03_text,global,class=STRCODE,delta=2,noexec
    19                           	psect	_time02_text,global,class=STRCODE,delta=2,noexec
    20                           	psect	_time01_text,global,class=STRCODE,delta=2,noexec
    21                           	psect	_time00_text,global,class=STRCODE,delta=2,noexec
    22                           	psect	nvBANK0,global,class=BANK0,space=1,delta=1,noexec
    23                           	psect	cinit,global,class=CODE,merge=1,delta=2
    24                           	psect	bssBANK0,global,class=BANK0,space=1,delta=1,noexec
    25                           	psect	dataBANK0,global,class=BANK0,space=1,delta=1,noexec
    26                           	psect	clrtext,global,class=CODE,delta=2
    27                           	psect	cstackCOMMON,global,class=COMMON,space=1,delta=1,noexec
    28                           	psect	cstackBANK0,global,class=BANK0,space=1,delta=1,noexec
    29                           	psect	maintext,global,class=CODE,merge=1,split=1,delta=2
    30                           	psect	text1,local,class=CODE,merge=1,delta=2
    31                           	psect	text2,local,class=CODE,merge=1,delta=2
    32                           	psect	text3,local,class=CODE,merge=1,delta=2
    33                           	psect	text4,local,class=CODE,merge=1,delta=2
    34                           	psect	text5,local,class=CODE,merge=1,delta=2
    35                           	psect	text6,local,class=CODE,merge=1,delta=2
    36                           	psect	text7,local,class=CODE,merge=1,delta=2
    37                           	psect	text8,local,class=CODE,merge=1,delta=2
    38                           	psect	text9,local,class=CODE,merge=1,delta=2
    39                           	psect	text10,local,class=CODE,merge=1,delta=2
    40                           	psect	text11,local,class=CODE,merge=1,delta=2
    41                           	psect	text12,local,class=CODE,merge=1,delta=2
    42                           	psect	text13,local,class=CODE,merge=1,delta=2
    43                           	psect	intentry,global,class=CODE,delta=2
    44                           	psect	text15,local,class=CODE,merge=1,delta=2
    45                           	psect	text16,local,class=CODE,merge=1,delta=2
    46                           	psect	text17,local,class=CODE,merge=1,delta=2
    47                           	psect	text18,local,class=CODE,merge=1,delta=2
    48                           	psect	text19,local,class=CODE,merge=1,delta=2
    49                           	psect	config,global,abs,ovrld,class=CONFIG,space=4,delta=2,noexec
    50                           	dabs	1,0x7E,2
    51  0000                     
    52                           ; Version 2.30
    53                           ; Generated 15/09/2020 GMT
    54                           ; 
    55                           ; Copyright © 2020, Microchip Technology Inc. and its subsidiaries ("Microchip")
    56                           ; All rights reserved.
    57                           ; 
    58                           ; This software is developed by Microchip Technology Inc. and its subsidiaries ("Microch
      +                          ip").
    59                           ; 
    60                           ; Redistribution and use in source and binary forms, with or without modification, are
    61                           ; permitted provided that the following conditions are met:
    62                           ; 
    63                           ;     1. Redistributions of source code must retain the above copyright notice, this lis
      +                          t of
    64                           ;        conditions and the following disclaimer.
    65                           ; 
    66                           ;     2. Redistributions in binary form must reproduce the above copyright notice, this 
      +                          list
    67                           ;        of conditions and the following disclaimer in the documentation and/or other
    68                           ;        materials provided with the distribution. Publication is not required when
    69                           ;        this file is used in an embedded application.
    70                           ; 
    71                           ;     3. Microchip's name may not be used to endorse or promote products derived from th
      +                          is
    72                           ;        software without specific prior written permission.
    73                           ; 
    74                           ; THIS SOFTWARE IS PROVIDED BY MICROCHIP "AS IS" AND ANY EXPRESS OR IMPLIED WARRANTIES,
    75                           ; INCLUDING, BUT NOT LIMITED TO, THE IMPLIED WARRANTIES OF MERCHANTABILITY AND FITNESS F
      +                          OR
    76                           ; PURPOSE ARE DISCLAIMED.  IN NO EVENT SHALL MICROCHIP BE LIABLE FOR ANY DIRECT, INDIREC
      +                          T,
    77                           ; INCIDENTAL, SPECIAL, EXEMPLARY, OR CONSEQUENTIAL DAMAGES (INCLUDING BUT NOT LIMITED TO
    78                           ; PROCUREMENT OF SUBSTITUTE GOODS OR SERVICES; LOSS OF USE, DATA OR PROFITS; OR BUSINESS
    79                           ; INTERRUPTION) HOWSOEVER CAUSED AND ON ANY THEORY OF LIABILITY, WHETHER IN CONTRACT, ST
      +                          RICT
    80                           ; LIABILITY, OR TORT (INCLUDING NEGLIGENCE OR OTHERWISE) ARISING IN ANY WAY OUT OF THE U
      +                          SE OF
    81                           ; THIS SOFTWARE, EVEN IF ADVISED OF THE POSSIBILITY OF SUCH DAMAGE.
    82                           ; 
    83                           ; 
    84                           ; Code-generator required, PIC16F18344 Definitions
    85                           ; 
    86                           ; SFR Addresses
    87  0000                     	;# 
    88  0001                     	;# 
    89  0002                     	;# 
    90  0003                     	;# 
    91  0004                     	;# 
    92  0005                     	;# 
    93  0006                     	;# 
    94  0007                     	;# 
    95  0008                     	;# 
    96  0009                     	;# 
    97  000A                     	;# 
    98  000B                     	;# 
    99  000C                     	;# 
   100  000D                     	;# 
   101  000E                     	;# 
   102  0010                     	;# 
   103  0011                     	;# 
   104  0012                     	;# 
   105  0013                     	;# 
   106  0014                     	;# 
   107  0015                     	;# 
   108  0015                     	;# 
   109  0016                     	;# 
   110  0016                     	;# 
   111  0017                     	;# 
   112  0018                     	;# 
   113  0019                     	;# 
   114  0019                     	;# 
   115  001A                     	;# 
   116  001B                     	;# 
   117  001C                     	;# 
   118  001D                     	;# 
   119  001E                     	;# 
   120  001F                     	;# 
   121  008C                     	;# 
   122  008D                     	;# 
   123  008E                     	;# 
   124  0090                     	;# 
   125  0091                     	;# 
   126  0092                     	;# 
   127  0093                     	;# 
   128  0094                     	;# 
   129  0097                     	;# 
   130  009B                     	;# 
   131  009B                     	;# 
   132  009C                     	;# 
   133  009D                     	;# 
   134  009E                     	;# 
   135  009F                     	;# 
   136  010C                     	;# 
   137  010D                     	;# 
   138  010E                     	;# 
   139  0111                     	;# 
   140  0112                     	;# 
   141  0113                     	;# 
   142  0114                     	;# 
   143  0115                     	;# 
   144  0116                     	;# 
   145  0117                     	;# 
   146  0118                     	;# 
   147  0119                     	;# 
   148  018C                     	;# 
   149  018D                     	;# 
   150  018E                     	;# 
   151  0197                     	;# 
   152  0199                     	;# 
   153  0199                     	;# 
   154  0199                     	;# 
   155  019A                     	;# 
   156  019A                     	;# 
   157  019A                     	;# 
   158  019B                     	;# 
   159  019B                     	;# 
   160  019B                     	;# 
   161  019B                     	;# 
   162  019B                     	;# 
   163  019C                     	;# 
   164  019C                     	;# 
   165  019C                     	;# 
   166  019D                     	;# 
   167  019D                     	;# 
   168  019D                     	;# 
   169  019E                     	;# 
   170  019E                     	;# 
   171  019E                     	;# 
   172  019F                     	;# 
   173  019F                     	;# 
   174  019F                     	;# 
   175  019F                     	;# 
   176  019F                     	;# 
   177  020C                     	;# 
   178  020D                     	;# 
   179  020E                     	;# 
   180  0211                     	;# 
   181  0211                     	;# 
   182  0212                     	;# 
   183  0212                     	;# 
   184  0213                     	;# 
   185  0213                     	;# 
   186  0214                     	;# 
   187  0214                     	;# 
   188  0215                     	;# 
   189  0215                     	;# 
   190  0215                     	;# 
   191  0215                     	;# 
   192  0216                     	;# 
   193  0216                     	;# 
   194  0217                     	;# 
   195  0217                     	;# 
   196  028C                     	;# 
   197  028D                     	;# 
   198  028E                     	;# 
   199  0291                     	;# 
   200  0291                     	;# 
   201  0292                     	;# 
   202  0293                     	;# 
   203  0294                     	;# 
   204  0295                     	;# 
   205  0295                     	;# 
   206  0296                     	;# 
   207  0297                     	;# 
   208  0298                     	;# 
   209  029F                     	;# 
   210  030C                     	;# 
   211  030D                     	;# 
   212  030E                     	;# 
   213  0311                     	;# 
   214  0311                     	;# 
   215  0312                     	;# 
   216  0313                     	;# 
   217  0314                     	;# 
   218  0315                     	;# 
   219  0315                     	;# 
   220  0316                     	;# 
   221  0317                     	;# 
   222  0318                     	;# 
   223  038C                     	;# 
   224  038D                     	;# 
   225  038E                     	;# 
   226  0391                     	;# 
   227  0392                     	;# 
   228  0393                     	;# 
   229  0394                     	;# 
   230  0395                     	;# 
   231  0396                     	;# 
   232  0397                     	;# 
   233  0398                     	;# 
   234  0399                     	;# 
   235  039A                     	;# 
   236  039C                     	;# 
   237  039D                     	;# 
   238  039E                     	;# 
   239  039F                     	;# 
   240  0411                     	;# 
   241  0411                     	;# 
   242  0412                     	;# 
   243  0413                     	;# 
   244  0414                     	;# 
   245  0415                     	;# 
   246  0416                     	;# 
   247  0417                     	;# 
   248  0418                     	;# 
   249  0418                     	;# 
   250  0419                     	;# 
   251  041A                     	;# 
   252  041B                     	;# 
   253  041C                     	;# 
   254  041D                     	;# 
   255  041E                     	;# 
   256  041F                     	;# 
   257  0498                     	;# 
   258  0498                     	;# 
   259  0499                     	;# 
   260  049A                     	;# 
   261  049B                     	;# 
   262  049B                     	;# 
   263  049C                     	;# 
   264  049D                     	;# 
   265  049E                     	;# 
   266  049F                     	;# 
   267  0617                     	;# 
   268  0618                     	;# 
   269  0619                     	;# 
   270  0619                     	;# 
   271  061A                     	;# 
   272  061B                     	;# 
   273  061C                     	;# 
   274  061C                     	;# 
   275  061F                     	;# 
   276  0691                     	;# 
   277  0692                     	;# 
   278  0693                     	;# 
   279  0694                     	;# 
   280  0695                     	;# 
   281  0696                     	;# 
   282  0697                     	;# 
   283  0698                     	;# 
   284  0699                     	;# 
   285  0711                     	;# 
   286  0712                     	;# 
   287  0713                     	;# 
   288  0714                     	;# 
   289  0715                     	;# 
   290  0716                     	;# 
   291  0717                     	;# 
   292  0718                     	;# 
   293  0719                     	;# 
   294  0891                     	;# 
   295  0891                     	;# 
   296  0891                     	;# 
   297  0891                     	;# 
   298  0891                     	;# 
   299  0891                     	;# 
   300  0892                     	;# 
   301  0892                     	;# 
   302  0892                     	;# 
   303  0893                     	;# 
   304  0893                     	;# 
   305  0893                     	;# 
   306  0893                     	;# 
   307  0893                     	;# 
   308  0893                     	;# 
   309  0894                     	;# 
   310  0894                     	;# 
   311  0894                     	;# 
   312  0895                     	;# 
   313  0895                     	;# 
   314  0895                     	;# 
   315  0896                     	;# 
   316  0896                     	;# 
   317  0896                     	;# 
   318  089B                     	;# 
   319  0911                     	;# 
   320  0912                     	;# 
   321  0913                     	;# 
   322  0914                     	;# 
   323  0915                     	;# 
   324  0916                     	;# 
   325  0918                     	;# 
   326  0919                     	;# 
   327  091A                     	;# 
   328  091B                     	;# 
   329  091C                     	;# 
   330  091D                     	;# 
   331  091E                     	;# 
   332  091F                     	;# 
   333  0E0F                     	;# 
   334  0E10                     	;# 
   335  0E11                     	;# 
   336  0E12                     	;# 
   337  0E13                     	;# 
   338  0E14                     	;# 
   339  0E15                     	;# 
   340  0E16                     	;# 
   341  0E17                     	;# 
   342  0E18                     	;# 
   343  0E19                     	;# 
   344  0E1A                     	;# 
   345  0E1B                     	;# 
   346  0E1C                     	;# 
   347  0E20                     	;# 
   348  0E21                     	;# 
   349  0E22                     	;# 
   350  0E24                     	;# 
   351  0E25                     	;# 
   352  0E28                     	;# 
   353  0E29                     	;# 
   354  0E2A                     	;# 
   355  0E2B                     	;# 
   356  0E2C                     	;# 
   357  0E2D                     	;# 
   358  0E2E                     	;# 
   359  0E2F                     	;# 
   360  0E90                     	;# 
   361  0E91                     	;# 
   362  0E92                     	;# 
   363  0E94                     	;# 
   364  0E95                     	;# 
   365  0E9C                     	;# 
   366  0E9D                     	;# 
   367  0E9E                     	;# 
   368  0E9F                     	;# 
   369  0EA0                     	;# 
   370  0EA1                     	;# 
   371  0EA2                     	;# 
   372  0EA3                     	;# 
   373  0EA4                     	;# 
   374  0EA5                     	;# 
   375  0EA6                     	;# 
   376  0EA7                     	;# 
   377  0F0F                     	;# 
   378  0F10                     	;# 
   379  0F11                     	;# 
   380  0F12                     	;# 
   381  0F13                     	;# 
   382  0F14                     	;# 
   383  0F15                     	;# 
   384  0F16                     	;# 
   385  0F17                     	;# 
   386  0F18                     	;# 
   387  0F19                     	;# 
   388  0F1A                     	;# 
   389  0F1B                     	;# 
   390  0F1C                     	;# 
   391  0F1D                     	;# 
   392  0F1E                     	;# 
   393  0F1F                     	;# 
   394  0F20                     	;# 
   395  0F21                     	;# 
   396  0F22                     	;# 
   397  0F23                     	;# 
   398  0F24                     	;# 
   399  0F25                     	;# 
   400  0F26                     	;# 
   401  0F27                     	;# 
   402  0F28                     	;# 
   403  0F29                     	;# 
   404  0F2A                     	;# 
   405  0F2B                     	;# 
   406  0F2C                     	;# 
   407  0F2D                     	;# 
   408  0F2E                     	;# 
   409  0F2F                     	;# 
   410  0F30                     	;# 
   411  0F31                     	;# 
   412  0F32                     	;# 
   413  0F33                     	;# 
   414  0F34                     	;# 
   415  0F35                     	;# 
   416  0F36                     	;# 
   417  0F37                     	;# 
   418  0FE4                     	;# 
   419  0FE5                     	;# 
   420  0FE6                     	;# 
   421  0FE7                     	;# 
   422  0FE8                     	;# 
   423  0FE9                     	;# 
   424  0FEA                     	;# 
   425  0FEB                     	;# 
   426  0FED                     	;# 
   427  0FEE                     	;# 
   428  0FEF                     	;# 
   429  0000                     	;# 
   430  0001                     	;# 
   431  0002                     	;# 
   432  0003                     	;# 
   433  0004                     	;# 
   434  0005                     	;# 
   435  0006                     	;# 
   436  0007                     	;# 
   437  0008                     	;# 
   438  0009                     	;# 
   439  000A                     	;# 
   440  000B                     	;# 
   441  000C                     	;# 
   442  000D                     	;# 
   443  000E                     	;# 
   444  0010                     	;# 
   445  0011                     	;# 
   446  0012                     	;# 
   447  0013                     	;# 
   448  0014                     	;# 
   449  0015                     	;# 
   450  0015                     	;# 
   451  0016                     	;# 
   452  0016                     	;# 
   453  0017                     	;# 
   454  0018                     	;# 
   455  0019                     	;# 
   456  0019                     	;# 
   457  001A                     	;# 
   458  001B                     	;# 
   459  001C                     	;# 
   460  001D                     	;# 
   461  001E                     	;# 
   462  001F                     	;# 
   463  008C                     	;# 
   464  008D                     	;# 
   465  008E                     	;# 
   466  0090                     	;# 
   467  0091                     	;# 
   468  0092                     	;# 
   469  0093                     	;# 
   470  0094                     	;# 
   471  0097                     	;# 
   472  009B                     	;# 
   473  009B                     	;# 
   474  009C                     	;# 
   475  009D                     	;# 
   476  009E                     	;# 
   477  009F                     	;# 
   478  010C                     	;# 
   479  010D                     	;# 
   480  010E                     	;# 
   481  0111                     	;# 
   482  0112                     	;# 
   483  0113                     	;# 
   484  0114                     	;# 
   485  0115                     	;# 
   486  0116                     	;# 
   487  0117                     	;# 
   488  0118                     	;# 
   489  0119                     	;# 
   490  018C                     	;# 
   491  018D                     	;# 
   492  018E                     	;# 
   493  0197                     	;# 
   494  0199                     	;# 
   495  0199                     	;# 
   496  0199                     	;# 
   497  019A                     	;# 
   498  019A                     	;# 
   499  019A                     	;# 
   500  019B                     	;# 
   501  019B                     	;# 
   502  019B                     	;# 
   503  019B                     	;# 
   504  019B                     	;# 
   505  019C                     	;# 
   506  019C                     	;# 
   507  019C                     	;# 
   508  019D                     	;# 
   509  019D                     	;# 
   510  019D                     	;# 
   511  019E                     	;# 
   512  019E                     	;# 
   513  019E                     	;# 
   514  019F                     	;# 
   515  019F                     	;# 
   516  019F                     	;# 
   517  019F                     	;# 
   518  019F                     	;# 
   519  020C                     	;# 
   520  020D                     	;# 
   521  020E                     	;# 
   522  0211                     	;# 
   523  0211                     	;# 
   524  0212                     	;# 
   525  0212                     	;# 
   526  0213                     	;# 
   527  0213                     	;# 
   528  0214                     	;# 
   529  0214                     	;# 
   530  0215                     	;# 
   531  0215                     	;# 
   532  0215                     	;# 
   533  0215                     	;# 
   534  0216                     	;# 
   535  0216                     	;# 
   536  0217                     	;# 
   537  0217                     	;# 
   538  028C                     	;# 
   539  028D                     	;# 
   540  028E                     	;# 
   541  0291                     	;# 
   542  0291                     	;# 
   543  0292                     	;# 
   544  0293                     	;# 
   545  0294                     	;# 
   546  0295                     	;# 
   547  0295                     	;# 
   548  0296                     	;# 
   549  0297                     	;# 
   550  0298                     	;# 
   551  029F                     	;# 
   552  030C                     	;# 
   553  030D                     	;# 
   554  030E                     	;# 
   555  0311                     	;# 
   556  0311                     	;# 
   557  0312                     	;# 
   558  0313                     	;# 
   559  0314                     	;# 
   560  0315                     	;# 
   561  0315                     	;# 
   562  0316                     	;# 
   563  0317                     	;# 
   564  0318                     	;# 
   565  038C                     	;# 
   566  038D                     	;# 
   567  038E                     	;# 
   568  0391                     	;# 
   569  0392                     	;# 
   570  0393                     	;# 
   571  0394                     	;# 
   572  0395                     	;# 
   573  0396                     	;# 
   574  0397                     	;# 
   575  0398                     	;# 
   576  0399                     	;# 
   577  039A                     	;# 
   578  039C                     	;# 
   579  039D                     	;# 
   580  039E                     	;# 
   581  039F                     	;# 
   582  0411                     	;# 
   583  0411                     	;# 
   584  0412                     	;# 
   585  0413                     	;# 
   586  0414                     	;# 
   587  0415                     	;# 
   588  0416                     	;# 
   589  0417                     	;# 
   590  0418                     	;# 
   591  0418                     	;# 
   592  0419                     	;# 
   593  041A                     	;# 
   594  041B                     	;# 
   595  041C                     	;# 
   596  041D                     	;# 
   597  041E                     	;# 
   598  041F                     	;# 
   599  0498                     	;# 
   600  0498                     	;# 
   601  0499                     	;# 
   602  049A                     	;# 
   603  049B                     	;# 
   604  049B                     	;# 
   605  049C                     	;# 
   606  049D                     	;# 
   607  049E                     	;# 
   608  049F                     	;# 
   609  0617                     	;# 
   610  0618                     	;# 
   611  0619                     	;# 
   612  0619                     	;# 
   613  061A                     	;# 
   614  061B                     	;# 
   615  061C                     	;# 
   616  061C                     	;# 
   617  061F                     	;# 
   618  0691                     	;# 
   619  0692                     	;# 
   620  0693                     	;# 
   621  0694                     	;# 
   622  0695                     	;# 
   623  0696                     	;# 
   624  0697                     	;# 
   625  0698                     	;# 
   626  0699                     	;# 
   627  0711                     	;# 
   628  0712                     	;# 
   629  0713                     	;# 
   630  0714                     	;# 
   631  0715                     	;# 
   632  0716                     	;# 
   633  0717                     	;# 
   634  0718                     	;# 
   635  0719                     	;# 
   636  0891                     	;# 
   637  0891                     	;# 
   638  0891                     	;# 
   639  0891                     	;# 
   640  0891                     	;# 
   641  0891                     	;# 
   642  0892                     	;# 
   643  0892                     	;# 
   644  0892                     	;# 
   645  0893                     	;# 
   646  0893                     	;# 
   647  0893                     	;# 
   648  0893                     	;# 
   649  0893                     	;# 
   650  0893                     	;# 
   651  0894                     	;# 
   652  0894                     	;# 
   653  0894                     	;# 
   654  0895                     	;# 
   655  0895                     	;# 
   656  0895                     	;# 
   657  0896                     	;# 
   658  0896                     	;# 
   659  0896                     	;# 
   660  089B                     	;# 
   661  0911                     	;# 
   662  0912                     	;# 
   663  0913                     	;# 
   664  0914                     	;# 
   665  0915                     	;# 
   666  0916                     	;# 
   667  0918                     	;# 
   668  0919                     	;# 
   669  091A                     	;# 
   670  091B                     	;# 
   671  091C                     	;# 
   672  091D                     	;# 
   673  091E                     	;# 
   674  091F                     	;# 
   675  0E0F                     	;# 
   676  0E10                     	;# 
   677  0E11                     	;# 
   678  0E12                     	;# 
   679  0E13                     	;# 
   680  0E14                     	;# 
   681  0E15                     	;# 
   682  0E16                     	;# 
   683  0E17                     	;# 
   684  0E18                     	;# 
   685  0E19                     	;# 
   686  0E1A                     	;# 
   687  0E1B                     	;# 
   688  0E1C                     	;# 
   689  0E20                     	;# 
   690  0E21                     	;# 
   691  0E22                     	;# 
   692  0E24                     	;# 
   693  0E25                     	;# 
   694  0E28                     	;# 
   695  0E29                     	;# 
   696  0E2A                     	;# 
   697  0E2B                     	;# 
   698  0E2C                     	;# 
   699  0E2D                     	;# 
   700  0E2E                     	;# 
   701  0E2F                     	;# 
   702  0E90                     	;# 
   703  0E91                     	;# 
   704  0E92                     	;# 
   705  0E94                     	;# 
   706  0E95                     	;# 
   707  0E9C                     	;# 
   708  0E9D                     	;# 
   709  0E9E                     	;# 
   710  0E9F                     	;# 
   711  0EA0                     	;# 
   712  0EA1                     	;# 
   713  0EA2                     	;# 
   714  0EA3                     	;# 
   715  0EA4                     	;# 
   716  0EA5                     	;# 
   717  0EA6                     	;# 
   718  0EA7                     	;# 
   719  0F0F                     	;# 
   720  0F10                     	;# 
   721  0F11                     	;# 
   722  0F12                     	;# 
   723  0F13                     	;# 
   724  0F14                     	;# 
   725  0F15                     	;# 
   726  0F16                     	;# 
   727  0F17                     	;# 
   728  0F18                     	;# 
   729  0F19                     	;# 
   730  0F1A                     	;# 
   731  0F1B                     	;# 
   732  0F1C                     	;# 
   733  0F1D                     	;# 
   734  0F1E                     	;# 
   735  0F1F                     	;# 
   736  0F20                     	;# 
   737  0F21                     	;# 
   738  0F22                     	;# 
   739  0F23                     	;# 
   740  0F24                     	;# 
   741  0F25                     	;# 
   742  0F26                     	;# 
   743  0F27                     	;# 
   744  0F28                     	;# 
   745  0F29                     	;# 
   746  0F2A                     	;# 
   747  0F2B                     	;# 
   748  0F2C                     	;# 
   749  0F2D                     	;# 
   750  0F2E                     	;# 
   751  0F2F                     	;# 
   752  0F30                     	;# 
   753  0F31                     	;# 
   754  0F32                     	;# 
   755  0F33                     	;# 
   756  0F34                     	;# 
   757  0F35                     	;# 
   758  0F36                     	;# 
   759  0F37                     	;# 
   760  0FE4                     	;# 
   761  0FE5                     	;# 
   762  0FE6                     	;# 
   763  0FE7                     	;# 
   764  0FE8                     	;# 
   765  0FE9                     	;# 
   766  0FEA                     	;# 
   767  0FEB                     	;# 
   768  0FED                     	;# 
   769  0FEE                     	;# 
   770  0FEF                     	;# 
   771  0000                     	;# 
   772  0001                     	;# 
   773  0002                     	;# 
   774  0003                     	;# 
   775  0004                     	;# 
   776  0005                     	;# 
   777  0006                     	;# 
   778  0007                     	;# 
   779  0008                     	;# 
   780  0009                     	;# 
   781  000A                     	;# 
   782  000B                     	;# 
   783  000C                     	;# 
   784  000D                     	;# 
   785  000E                     	;# 
   786  0010                     	;# 
   787  0011                     	;# 
   788  0012                     	;# 
   789  0013                     	;# 
   790  0014                     	;# 
   791  0015                     	;# 
   792  0015                     	;# 
   793  0016                     	;# 
   794  0016                     	;# 
   795  0017                     	;# 
   796  0018                     	;# 
   797  0019                     	;# 
   798  0019                     	;# 
   799  001A                     	;# 
   800  001B                     	;# 
   801  001C                     	;# 
   802  001D                     	;# 
   803  001E                     	;# 
   804  001F                     	;# 
   805  008C                     	;# 
   806  008D                     	;# 
   807  008E                     	;# 
   808  0090                     	;# 
   809  0091                     	;# 
   810  0092                     	;# 
   811  0093                     	;# 
   812  0094                     	;# 
   813  0097                     	;# 
   814  009B                     	;# 
   815  009B                     	;# 
   816  009C                     	;# 
   817  009D                     	;# 
   818  009E                     	;# 
   819  009F                     	;# 
   820  010C                     	;# 
   821  010D                     	;# 
   822  010E                     	;# 
   823  0111                     	;# 
   824  0112                     	;# 
   825  0113                     	;# 
   826  0114                     	;# 
   827  0115                     	;# 
   828  0116                     	;# 
   829  0117                     	;# 
   830  0118                     	;# 
   831  0119                     	;# 
   832  018C                     	;# 
   833  018D                     	;# 
   834  018E                     	;# 
   835  0197                     	;# 
   836  0199                     	;# 
   837  0199                     	;# 
   838  0199                     	;# 
   839  019A                     	;# 
   840  019A                     	;# 
   841  019A                     	;# 
   842  019B                     	;# 
   843  019B                     	;# 
   844  019B                     	;# 
   845  019B                     	;# 
   846  019B                     	;# 
   847  019C                     	;# 
   848  019C                     	;# 
   849  019C                     	;# 
   850  019D                     	;# 
   851  019D                     	;# 
   852  019D                     	;# 
   853  019E                     	;# 
   854  019E                     	;# 
   855  019E                     	;# 
   856  019F                     	;# 
   857  019F                     	;# 
   858  019F                     	;# 
   859  019F                     	;# 
   860  019F                     	;# 
   861  020C                     	;# 
   862  020D                     	;# 
   863  020E                     	;# 
   864  0211                     	;# 
   865  0211                     	;# 
   866  0212                     	;# 
   867  0212                     	;# 
   868  0213                     	;# 
   869  0213                     	;# 
   870  0214                     	;# 
   871  0214                     	;# 
   872  0215                     	;# 
   873  0215                     	;# 
   874  0215                     	;# 
   875  0215                     	;# 
   876  0216                     	;# 
   877  0216                     	;# 
   878  0217                     	;# 
   879  0217                     	;# 
   880  028C                     	;# 
   881  028D                     	;# 
   882  028E                     	;# 
   883  0291                     	;# 
   884  0291                     	;# 
   885  0292                     	;# 
   886  0293                     	;# 
   887  0294                     	;# 
   888  0295                     	;# 
   889  0295                     	;# 
   890  0296                     	;# 
   891  0297                     	;# 
   892  0298                     	;# 
   893  029F                     	;# 
   894  030C                     	;# 
   895  030D                     	;# 
   896  030E                     	;# 
   897  0311                     	;# 
   898  0311                     	;# 
   899  0312                     	;# 
   900  0313                     	;# 
   901  0314                     	;# 
   902  0315                     	;# 
   903  0315                     	;# 
   904  0316                     	;# 
   905  0317                     	;# 
   906  0318                     	;# 
   907  038C                     	;# 
   908  038D                     	;# 
   909  038E                     	;# 
   910  0391                     	;# 
   911  0392                     	;# 
   912  0393                     	;# 
   913  0394                     	;# 
   914  0395                     	;# 
   915  0396                     	;# 
   916  0397                     	;# 
   917  0398                     	;# 
   918  0399                     	;# 
   919  039A                     	;# 
   920  039C                     	;# 
   921  039D                     	;# 
   922  039E                     	;# 
   923  039F                     	;# 
   924  0411                     	;# 
   925  0411                     	;# 
   926  0412                     	;# 
   927  0413                     	;# 
   928  0414                     	;# 
   929  0415                     	;# 
   930  0416                     	;# 
   931  0417                     	;# 
   932  0418                     	;# 
   933  0418                     	;# 
   934  0419                     	;# 
   935  041A                     	;# 
   936  041B                     	;# 
   937  041C                     	;# 
   938  041D                     	;# 
   939  041E                     	;# 
   940  041F                     	;# 
   941  0498                     	;# 
   942  0498                     	;# 
   943  0499                     	;# 
   944  049A                     	;# 
   945  049B                     	;# 
   946  049B                     	;# 
   947  049C                     	;# 
   948  049D                     	;# 
   949  049E                     	;# 
   950  049F                     	;# 
   951  0617                     	;# 
   952  0618                     	;# 
   953  0619                     	;# 
   954  0619                     	;# 
   955  061A                     	;# 
   956  061B                     	;# 
   957  061C                     	;# 
   958  061C                     	;# 
   959  061F                     	;# 
   960  0691                     	;# 
   961  0692                     	;# 
   962  0693                     	;# 
   963  0694                     	;# 
   964  0695                     	;# 
   965  0696                     	;# 
   966  0697                     	;# 
   967  0698                     	;# 
   968  0699                     	;# 
   969  0711                     	;# 
   970  0712                     	;# 
   971  0713                     	;# 
   972  0714                     	;# 
   973  0715                     	;# 
   974  0716                     	;# 
   975  0717                     	;# 
   976  0718                     	;# 
   977  0719                     	;# 
   978  0891                     	;# 
   979  0891                     	;# 
   980  0891                     	;# 
   981  0891                     	;# 
   982  0891                     	;# 
   983  0891                     	;# 
   984  0892                     	;# 
   985  0892                     	;# 
   986  0892                     	;# 
   987  0893                     	;# 
   988  0893                     	;# 
   989  0893                     	;# 
   990  0893                     	;# 
   991  0893                     	;# 
   992  0893                     	;# 
   993  0894                     	;# 
   994  0894                     	;# 
   995  0894                     	;# 
   996  0895                     	;# 
   997  0895                     	;# 
   998  0895                     	;# 
   999  0896                     	;# 
  1000  0896                     	;# 
  1001  0896                     	;# 
  1002  089B                     	;# 
  1003  0911                     	;# 
  1004  0912                     	;# 
  1005  0913                     	;# 
  1006  0914                     	;# 
  1007  0915                     	;# 
  1008  0916                     	;# 
  1009  0918                     	;# 
  1010  0919                     	;# 
  1011  091A                     	;# 
  1012  091B                     	;# 
  1013  091C                     	;# 
  1014  091D                     	;# 
  1015  091E                     	;# 
  1016  091F                     	;# 
  1017  0E0F                     	;# 
  1018  0E10                     	;# 
  1019  0E11                     	;# 
  1020  0E12                     	;# 
  1021  0E13                     	;# 
  1022  0E14                     	;# 
  1023  0E15                     	;# 
  1024  0E16                     	;# 
  1025  0E17                     	;# 
  1026  0E18                     	;# 
  1027  0E19                     	;# 
  1028  0E1A                     	;# 
  1029  0E1B                     	;# 
  1030  0E1C                     	;# 
  1031  0E20                     	;# 
  1032  0E21                     	;# 
  1033  0E22                     	;# 
  1034  0E24                     	;# 
  1035  0E25                     	;# 
  1036  0E28                     	;# 
  1037  0E29                     	;# 
  1038  0E2A                     	;# 
  1039  0E2B                     	;# 
  1040  0E2C                     	;# 
  1041  0E2D                     	;# 
  1042  0E2E                     	;# 
  1043  0E2F                     	;# 
  1044  0E90                     	;# 
  1045  0E91                     	;# 
  1046  0E92                     	;# 
  1047  0E94                     	;# 
  1048  0E95                     	;# 
  1049  0E9C                     	;# 
  1050  0E9D                     	;# 
  1051  0E9E                     	;# 
  1052  0E9F                     	;# 
  1053  0EA0                     	;# 
  1054  0EA1                     	;# 
  1055  0EA2                     	;# 
  1056  0EA3                     	;# 
  1057  0EA4                     	;# 
  1058  0EA5                     	;# 
  1059  0EA6                     	;# 
  1060  0EA7                     	;# 
  1061  0F0F                     	;# 
  1062  0F10                     	;# 
  1063  0F11                     	;# 
  1064  0F12                     	;# 
  1065  0F13                     	;# 
  1066  0F14                     	;# 
  1067  0F15                     	;# 
  1068  0F16                     	;# 
  1069  0F17                     	;# 
  1070  0F18                     	;# 
  1071  0F19                     	;# 
  1072  0F1A                     	;# 
  1073  0F1B                     	;# 
  1074  0F1C                     	;# 
  1075  0F1D                     	;# 
  1076  0F1E                     	;# 
  1077  0F1F                     	;# 
  1078  0F20                     	;# 
  1079  0F21                     	;# 
  1080  0F22                     	;# 
  1081  0F23                     	;# 
  1082  0F24                     	;# 
  1083  0F25                     	;# 
  1084  0F26                     	;# 
  1085  0F27                     	;# 
  1086  0F28                     	;# 
  1087  0F29                     	;# 
  1088  0F2A                     	;# 
  1089  0F2B                     	;# 
  1090  0F2C                     	;# 
  1091  0F2D                     	;# 
  1092  0F2E                     	;# 
  1093  0F2F                     	;# 
  1094  0F30                     	;# 
  1095  0F31                     	;# 
  1096  0F32                     	;# 
  1097  0F33                     	;# 
  1098  0F34                     	;# 
  1099  0F35                     	;# 
  1100  0F36                     	;# 
  1101  0F37                     	;# 
  1102  0FE4                     	;# 
  1103  0FE5                     	;# 
  1104  0FE6                     	;# 
  1105  0FE7                     	;# 
  1106  0FE8                     	;# 
  1107  0FE9                     	;# 
  1108  0FEA                     	;# 
  1109  0FEB                     	;# 
  1110  0FED                     	;# 
  1111  0FEE                     	;# 
  1112  0FEF                     	;# 
  1113  0000                     	;# 
  1114  0001                     	;# 
  1115  0002                     	;# 
  1116  0003                     	;# 
  1117  0004                     	;# 
  1118  0005                     	;# 
  1119  0006                     	;# 
  1120  0007                     	;# 
  1121  0008                     	;# 
  1122  0009                     	;# 
  1123  000A                     	;# 
  1124  000B                     	;# 
  1125  000C                     	;# 
  1126  000D                     	;# 
  1127  000E                     	;# 
  1128  0010                     	;# 
  1129  0011                     	;# 
  1130  0012                     	;# 
  1131  0013                     	;# 
  1132  0014                     	;# 
  1133  0015                     	;# 
  1134  0015                     	;# 
  1135  0016                     	;# 
  1136  0016                     	;# 
  1137  0017                     	;# 
  1138  0018                     	;# 
  1139  0019                     	;# 
  1140  0019                     	;# 
  1141  001A                     	;# 
  1142  001B                     	;# 
  1143  001C                     	;# 
  1144  001D                     	;# 
  1145  001E                     	;# 
  1146  001F                     	;# 
  1147  008C                     	;# 
  1148  008D                     	;# 
  1149  008E                     	;# 
  1150  0090                     	;# 
  1151  0091                     	;# 
  1152  0092                     	;# 
  1153  0093                     	;# 
  1154  0094                     	;# 
  1155  0097                     	;# 
  1156  009B                     	;# 
  1157  009B                     	;# 
  1158  009C                     	;# 
  1159  009D                     	;# 
  1160  009E                     	;# 
  1161  009F                     	;# 
  1162  010C                     	;# 
  1163  010D                     	;# 
  1164  010E                     	;# 
  1165  0111                     	;# 
  1166  0112                     	;# 
  1167  0113                     	;# 
  1168  0114                     	;# 
  1169  0115                     	;# 
  1170  0116                     	;# 
  1171  0117                     	;# 
  1172  0118                     	;# 
  1173  0119                     	;# 
  1174  018C                     	;# 
  1175  018D                     	;# 
  1176  018E                     	;# 
  1177  0197                     	;# 
  1178  0199                     	;# 
  1179  0199                     	;# 
  1180  0199                     	;# 
  1181  019A                     	;# 
  1182  019A                     	;# 
  1183  019A                     	;# 
  1184  019B                     	;# 
  1185  019B                     	;# 
  1186  019B                     	;# 
  1187  019B                     	;# 
  1188  019B                     	;# 
  1189  019C                     	;# 
  1190  019C                     	;# 
  1191  019C                     	;# 
  1192  019D                     	;# 
  1193  019D                     	;# 
  1194  019D                     	;# 
  1195  019E                     	;# 
  1196  019E                     	;# 
  1197  019E                     	;# 
  1198  019F                     	;# 
  1199  019F                     	;# 
  1200  019F                     	;# 
  1201  019F                     	;# 
  1202  019F                     	;# 
  1203  020C                     	;# 
  1204  020D                     	;# 
  1205  020E                     	;# 
  1206  0211                     	;# 
  1207  0211                     	;# 
  1208  0212                     	;# 
  1209  0212                     	;# 
  1210  0213                     	;# 
  1211  0213                     	;# 
  1212  0214                     	;# 
  1213  0214                     	;# 
  1214  0215                     	;# 
  1215  0215                     	;# 
  1216  0215                     	;# 
  1217  0215                     	;# 
  1218  0216                     	;# 
  1219  0216                     	;# 
  1220  0217                     	;# 
  1221  0217                     	;# 
  1222  028C                     	;# 
  1223  028D                     	;# 
  1224  028E                     	;# 
  1225  0291                     	;# 
  1226  0291                     	;# 
  1227  0292                     	;# 
  1228  0293                     	;# 
  1229  0294                     	;# 
  1230  0295                     	;# 
  1231  0295                     	;# 
  1232  0296                     	;# 
  1233  0297                     	;# 
  1234  0298                     	;# 
  1235  029F                     	;# 
  1236  030C                     	;# 
  1237  030D                     	;# 
  1238  030E                     	;# 
  1239  0311                     	;# 
  1240  0311                     	;# 
  1241  0312                     	;# 
  1242  0313                     	;# 
  1243  0314                     	;# 
  1244  0315                     	;# 
  1245  0315                     	;# 
  1246  0316                     	;# 
  1247  0317                     	;# 
  1248  0318                     	;# 
  1249  038C                     	;# 
  1250  038D                     	;# 
  1251  038E                     	;# 
  1252  0391                     	;# 
  1253  0392                     	;# 
  1254  0393                     	;# 
  1255  0394                     	;# 
  1256  0395                     	;# 
  1257  0396                     	;# 
  1258  0397                     	;# 
  1259  0398                     	;# 
  1260  0399                     	;# 
  1261  039A                     	;# 
  1262  039C                     	;# 
  1263  039D                     	;# 
  1264  039E                     	;# 
  1265  039F                     	;# 
  1266  0411                     	;# 
  1267  0411                     	;# 
  1268  0412                     	;# 
  1269  0413                     	;# 
  1270  0414                     	;# 
  1271  0415                     	;# 
  1272  0416                     	;# 
  1273  0417                     	;# 
  1274  0418                     	;# 
  1275  0418                     	;# 
  1276  0419                     	;# 
  1277  041A                     	;# 
  1278  041B                     	;# 
  1279  041C                     	;# 
  1280  041D                     	;# 
  1281  041E                     	;# 
  1282  041F                     	;# 
  1283  0498                     	;# 
  1284  0498                     	;# 
  1285  0499                     	;# 
  1286  049A                     	;# 
  1287  049B                     	;# 
  1288  049B                     	;# 
  1289  049C                     	;# 
  1290  049D                     	;# 
  1291  049E                     	;# 
  1292  049F                     	;# 
  1293  0617                     	;# 
  1294  0618                     	;# 
  1295  0619                     	;# 
  1296  0619                     	;# 
  1297  061A                     	;# 
  1298  061B                     	;# 
  1299  061C                     	;# 
  1300  061C                     	;# 
  1301  061F                     	;# 
  1302  0691                     	;# 
  1303  0692                     	;# 
  1304  0693                     	;# 
  1305  0694                     	;# 
  1306  0695                     	;# 
  1307  0696                     	;# 
  1308  0697                     	;# 
  1309  0698                     	;# 
  1310  0699                     	;# 
  1311  0711                     	;# 
  1312  0712                     	;# 
  1313  0713                     	;# 
  1314  0714                     	;# 
  1315  0715                     	;# 
  1316  0716                     	;# 
  1317  0717                     	;# 
  1318  0718                     	;# 
  1319  0719                     	;# 
  1320  0891                     	;# 
  1321  0891                     	;# 
  1322  0891                     	;# 
  1323  0891                     	;# 
  1324  0891                     	;# 
  1325  0891                     	;# 
  1326  0892                     	;# 
  1327  0892                     	;# 
  1328  0892                     	;# 
  1329  0893                     	;# 
  1330  0893                     	;# 
  1331  0893                     	;# 
  1332  0893                     	;# 
  1333  0893                     	;# 
  1334  0893                     	;# 
  1335  0894                     	;# 
  1336  0894                     	;# 
  1337  0894                     	;# 
  1338  0895                     	;# 
  1339  0895                     	;# 
  1340  0895                     	;# 
  1341  0896                     	;# 
  1342  0896                     	;# 
  1343  0896                     	;# 
  1344  089B                     	;# 
  1345  0911                     	;# 
  1346  0912                     	;# 
  1347  0913                     	;# 
  1348  0914                     	;# 
  1349  0915                     	;# 
  1350  0916                     	;# 
  1351  0918                     	;# 
  1352  0919                     	;# 
  1353  091A                     	;# 
  1354  091B                     	;# 
  1355  091C                     	;# 
  1356  091D                     	;# 
  1357  091E                     	;# 
  1358  091F                     	;# 
  1359  0E0F                     	;# 
  1360  0E10                     	;# 
  1361  0E11                     	;# 
  1362  0E12                     	;# 
  1363  0E13                     	;# 
  1364  0E14                     	;# 
  1365  0E15                     	;# 
  1366  0E16                     	;# 
  1367  0E17                     	;# 
  1368  0E18                     	;# 
  1369  0E19                     	;# 
  1370  0E1A                     	;# 
  1371  0E1B                     	;# 
  1372  0E1C                     	;# 
  1373  0E20                     	;# 
  1374  0E21                     	;# 
  1375  0E22                     	;# 
  1376  0E24                     	;# 
  1377  0E25                     	;# 
  1378  0E28                     	;# 
  1379  0E29                     	;# 
  1380  0E2A                     	;# 
  1381  0E2B                     	;# 
  1382  0E2C                     	;# 
  1383  0E2D                     	;# 
  1384  0E2E                     	;# 
  1385  0E2F                     	;# 
  1386  0E90                     	;# 
  1387  0E91                     	;# 
  1388  0E92                     	;# 
  1389  0E94                     	;# 
  1390  0E95                     	;# 
  1391  0E9C                     	;# 
  1392  0E9D                     	;# 
  1393  0E9E                     	;# 
  1394  0E9F                     	;# 
  1395  0EA0                     	;# 
  1396  0EA1                     	;# 
  1397  0EA2                     	;# 
  1398  0EA3                     	;# 
  1399  0EA4                     	;# 
  1400  0EA5                     	;# 
  1401  0EA6                     	;# 
  1402  0EA7                     	;# 
  1403  0F0F                     	;# 
  1404  0F10                     	;# 
  1405  0F11                     	;# 
  1406  0F12                     	;# 
  1407  0F13                     	;# 
  1408  0F14                     	;# 
  1409  0F15                     	;# 
  1410  0F16                     	;# 
  1411  0F17                     	;# 
  1412  0F18                     	;# 
  1413  0F19                     	;# 
  1414  0F1A                     	;# 
  1415  0F1B                     	;# 
  1416  0F1C                     	;# 
  1417  0F1D                     	;# 
  1418  0F1E                     	;# 
  1419  0F1F                     	;# 
  1420  0F20                     	;# 
  1421  0F21                     	;# 
  1422  0F22                     	;# 
  1423  0F23                     	;# 
  1424  0F24                     	;# 
  1425  0F25                     	;# 
  1426  0F26                     	;# 
  1427  0F27                     	;# 
  1428  0F28                     	;# 
  1429  0F29                     	;# 
  1430  0F2A                     	;# 
  1431  0F2B                     	;# 
  1432  0F2C                     	;# 
  1433  0F2D                     	;# 
  1434  0F2E                     	;# 
  1435  0F2F                     	;# 
  1436  0F30                     	;# 
  1437  0F31                     	;# 
  1438  0F32                     	;# 
  1439  0F33                     	;# 
  1440  0F34                     	;# 
  1441  0F35                     	;# 
  1442  0F36                     	;# 
  1443  0F37                     	;# 
  1444  0FE4                     	;# 
  1445  0FE5                     	;# 
  1446  0FE6                     	;# 
  1447  0FE7                     	;# 
  1448  0FE8                     	;# 
  1449  0FE9                     	;# 
  1450  0FEA                     	;# 
  1451  0FEB                     	;# 
  1452  0FED                     	;# 
  1453  0FEE                     	;# 
  1454  0FEF                     	;# 
  1455  0000                     	;# 
  1456  0001                     	;# 
  1457  0002                     	;# 
  1458  0003                     	;# 
  1459  0004                     	;# 
  1460  0005                     	;# 
  1461  0006                     	;# 
  1462  0007                     	;# 
  1463  0008                     	;# 
  1464  0009                     	;# 
  1465  000A                     	;# 
  1466  000B                     	;# 
  1467  000C                     	;# 
  1468  000D                     	;# 
  1469  000E                     	;# 
  1470  0010                     	;# 
  1471  0011                     	;# 
  1472  0012                     	;# 
  1473  0013                     	;# 
  1474  0014                     	;# 
  1475  0015                     	;# 
  1476  0015                     	;# 
  1477  0016                     	;# 
  1478  0016                     	;# 
  1479  0017                     	;# 
  1480  0018                     	;# 
  1481  0019                     	;# 
  1482  0019                     	;# 
  1483  001A                     	;# 
  1484  001B                     	;# 
  1485  001C                     	;# 
  1486  001D                     	;# 
  1487  001E                     	;# 
  1488  001F                     	;# 
  1489  008C                     	;# 
  1490  008D                     	;# 
  1491  008E                     	;# 
  1492  0090                     	;# 
  1493  0091                     	;# 
  1494  0092                     	;# 
  1495  0093                     	;# 
  1496  0094                     	;# 
  1497  0097                     	;# 
  1498  009B                     	;# 
  1499  009B                     	;# 
  1500  009C                     	;# 
  1501  009D                     	;# 
  1502  009E                     	;# 
  1503  009F                     	;# 
  1504  010C                     	;# 
  1505  010D                     	;# 
  1506  010E                     	;# 
  1507  0111                     	;# 
  1508  0112                     	;# 
  1509  0113                     	;# 
  1510  0114                     	;# 
  1511  0115                     	;# 
  1512  0116                     	;# 
  1513  0117                     	;# 
  1514  0118                     	;# 
  1515  0119                     	;# 
  1516  018C                     	;# 
  1517  018D                     	;# 
  1518  018E                     	;# 
  1519  0197                     	;# 
  1520  0199                     	;# 
  1521  0199                     	;# 
  1522  0199                     	;# 
  1523  019A                     	;# 
  1524  019A                     	;# 
  1525  019A                     	;# 
  1526  019B                     	;# 
  1527  019B                     	;# 
  1528  019B                     	;# 
  1529  019B                     	;# 
  1530  019B                     	;# 
  1531  019C                     	;# 
  1532  019C                     	;# 
  1533  019C                     	;# 
  1534  019D                     	;# 
  1535  019D                     	;# 
  1536  019D                     	;# 
  1537  019E                     	;# 
  1538  019E                     	;# 
  1539  019E                     	;# 
  1540  019F                     	;# 
  1541  019F                     	;# 
  1542  019F                     	;# 
  1543  019F                     	;# 
  1544  019F                     	;# 
  1545  020C                     	;# 
  1546  020D                     	;# 
  1547  020E                     	;# 
  1548  0211                     	;# 
  1549  0211                     	;# 
  1550  0212                     	;# 
  1551  0212                     	;# 
  1552  0213                     	;# 
  1553  0213                     	;# 
  1554  0214                     	;# 
  1555  0214                     	;# 
  1556  0215                     	;# 
  1557  0215                     	;# 
  1558  0215                     	;# 
  1559  0215                     	;# 
  1560  0216                     	;# 
  1561  0216                     	;# 
  1562  0217                     	;# 
  1563  0217                     	;# 
  1564  028C                     	;# 
  1565  028D                     	;# 
  1566  028E                     	;# 
  1567  0291                     	;# 
  1568  0291                     	;# 
  1569  0292                     	;# 
  1570  0293                     	;# 
  1571  0294                     	;# 
  1572  0295                     	;# 
  1573  0295                     	;# 
  1574  0296                     	;# 
  1575  0297                     	;# 
  1576  0298                     	;# 
  1577  029F                     	;# 
  1578  030C                     	;# 
  1579  030D                     	;# 
  1580  030E                     	;# 
  1581  0311                     	;# 
  1582  0311                     	;# 
  1583  0312                     	;# 
  1584  0313                     	;# 
  1585  0314                     	;# 
  1586  0315                     	;# 
  1587  0315                     	;# 
  1588  0316                     	;# 
  1589  0317                     	;# 
  1590  0318                     	;# 
  1591  038C                     	;# 
  1592  038D                     	;# 
  1593  038E                     	;# 
  1594  0391                     	;# 
  1595  0392                     	;# 
  1596  0393                     	;# 
  1597  0394                     	;# 
  1598  0395                     	;# 
  1599  0396                     	;# 
  1600  0397                     	;# 
  1601  0398                     	;# 
  1602  0399                     	;# 
  1603  039A                     	;# 
  1604  039C                     	;# 
  1605  039D                     	;# 
  1606  039E                     	;# 
  1607  039F                     	;# 
  1608  0411                     	;# 
  1609  0411                     	;# 
  1610  0412                     	;# 
  1611  0413                     	;# 
  1612  0414                     	;# 
  1613  0415                     	;# 
  1614  0416                     	;# 
  1615  0417                     	;# 
  1616  0418                     	;# 
  1617  0418                     	;# 
  1618  0419                     	;# 
  1619  041A                     	;# 
  1620  041B                     	;# 
  1621  041C                     	;# 
  1622  041D                     	;# 
  1623  041E                     	;# 
  1624  041F                     	;# 
  1625  0498                     	;# 
  1626  0498                     	;# 
  1627  0499                     	;# 
  1628  049A                     	;# 
  1629  049B                     	;# 
  1630  049B                     	;# 
  1631  049C                     	;# 
  1632  049D                     	;# 
  1633  049E                     	;# 
  1634  049F                     	;# 
  1635  0617                     	;# 
  1636  0618                     	;# 
  1637  0619                     	;# 
  1638  0619                     	;# 
  1639  061A                     	;# 
  1640  061B                     	;# 
  1641  061C                     	;# 
  1642  061C                     	;# 
  1643  061F                     	;# 
  1644  0691                     	;# 
  1645  0692                     	;# 
  1646  0693                     	;# 
  1647  0694                     	;# 
  1648  0695                     	;# 
  1649  0696                     	;# 
  1650  0697                     	;# 
  1651  0698                     	;# 
  1652  0699                     	;# 
  1653  0711                     	;# 
  1654  0712                     	;# 
  1655  0713                     	;# 
  1656  0714                     	;# 
  1657  0715                     	;# 
  1658  0716                     	;# 
  1659  0717                     	;# 
  1660  0718                     	;# 
  1661  0719                     	;# 
  1662  0891                     	;# 
  1663  0891                     	;# 
  1664  0891                     	;# 
  1665  0891                     	;# 
  1666  0891                     	;# 
  1667  0891                     	;# 
  1668  0892                     	;# 
  1669  0892                     	;# 
  1670  0892                     	;# 
  1671  0893                     	;# 
  1672  0893                     	;# 
  1673  0893                     	;# 
  1674  0893                     	;# 
  1675  0893                     	;# 
  1676  0893                     	;# 
  1677  0894                     	;# 
  1678  0894                     	;# 
  1679  0894                     	;# 
  1680  0895                     	;# 
  1681  0895                     	;# 
  1682  0895                     	;# 
  1683  0896                     	;# 
  1684  0896                     	;# 
  1685  0896                     	;# 
  1686  089B                     	;# 
  1687  0911                     	;# 
  1688  0912                     	;# 
  1689  0913                     	;# 
  1690  0914                     	;# 
  1691  0915                     	;# 
  1692  0916                     	;# 
  1693  0918                     	;# 
  1694  0919                     	;# 
  1695  091A                     	;# 
  1696  091B                     	;# 
  1697  091C                     	;# 
  1698  091D                     	;# 
  1699  091E                     	;# 
  1700  091F                     	;# 
  1701  0E0F                     	;# 
  1702  0E10                     	;# 
  1703  0E11                     	;# 
  1704  0E12                     	;# 
  1705  0E13                     	;# 
  1706  0E14                     	;# 
  1707  0E15                     	;# 
  1708  0E16                     	;# 
  1709  0E17                     	;# 
  1710  0E18                     	;# 
  1711  0E19                     	;# 
  1712  0E1A                     	;# 
  1713  0E1B                     	;# 
  1714  0E1C                     	;# 
  1715  0E20                     	;# 
  1716  0E21                     	;# 
  1717  0E22                     	;# 
  1718  0E24                     	;# 
  1719  0E25                     	;# 
  1720  0E28                     	;# 
  1721  0E29                     	;# 
  1722  0E2A                     	;# 
  1723  0E2B                     	;# 
  1724  0E2C                     	;# 
  1725  0E2D                     	;# 
  1726  0E2E                     	;# 
  1727  0E2F                     	;# 
  1728  0E90                     	;# 
  1729  0E91                     	;# 
  1730  0E92                     	;# 
  1731  0E94                     	;# 
  1732  0E95                     	;# 
  1733  0E9C                     	;# 
  1734  0E9D                     	;# 
  1735  0E9E                     	;# 
  1736  0E9F                     	;# 
  1737  0EA0                     	;# 
  1738  0EA1                     	;# 
  1739  0EA2                     	;# 
  1740  0EA3                     	;# 
  1741  0EA4                     	;# 
  1742  0EA5                     	;# 
  1743  0EA6                     	;# 
  1744  0EA7                     	;# 
  1745  0F0F                     	;# 
  1746  0F10                     	;# 
  1747  0F11                     	;# 
  1748  0F12                     	;# 
  1749  0F13                     	;# 
  1750  0F14                     	;# 
  1751  0F15                     	;# 
  1752  0F16                     	;# 
  1753  0F17                     	;# 
  1754  0F18                     	;# 
  1755  0F19                     	;# 
  1756  0F1A                     	;# 
  1757  0F1B                     	;# 
  1758  0F1C                     	;# 
  1759  0F1D                     	;# 
  1760  0F1E                     	;# 
  1761  0F1F                     	;# 
  1762  0F20                     	;# 
  1763  0F21                     	;# 
  1764  0F22                     	;# 
  1765  0F23                     	;# 
  1766  0F24                     	;# 
  1767  0F25                     	;# 
  1768  0F26                     	;# 
  1769  0F27                     	;# 
  1770  0F28                     	;# 
  1771  0F29                     	;# 
  1772  0F2A                     	;# 
  1773  0F2B                     	;# 
  1774  0F2C                     	;# 
  1775  0F2D                     	;# 
  1776  0F2E                     	;# 
  1777  0F2F                     	;# 
  1778  0F30                     	;# 
  1779  0F31                     	;# 
  1780  0F32                     	;# 
  1781  0F33                     	;# 
  1782  0F34                     	;# 
  1783  0F35                     	;# 
  1784  0F36                     	;# 
  1785  0F37                     	;# 
  1786  0FE4                     	;# 
  1787  0FE5                     	;# 
  1788  0FE6                     	;# 
  1789  0FE7                     	;# 
  1790  0FE8                     	;# 
  1791  0FE9                     	;# 
  1792  0FEA                     	;# 
  1793  0FEB                     	;# 
  1794  0FED                     	;# 
  1795  0FEE                     	;# 
  1796  0FEF                     	;# 
  1797  0000                     	;# 
  1798  0001                     	;# 
  1799  0002                     	;# 
  1800  0003                     	;# 
  1801  0004                     	;# 
  1802  0005                     	;# 
  1803  0006                     	;# 
  1804  0007                     	;# 
  1805  0008                     	;# 
  1806  0009                     	;# 
  1807  000A                     	;# 
  1808  000B                     	;# 
  1809  000C                     	;# 
  1810  000D                     	;# 
  1811  000E                     	;# 
  1812  0010                     	;# 
  1813  0011                     	;# 
  1814  0012                     	;# 
  1815  0013                     	;# 
  1816  0014                     	;# 
  1817  0015                     	;# 
  1818  0015                     	;# 
  1819  0016                     	;# 
  1820  0016                     	;# 
  1821  0017                     	;# 
  1822  0018                     	;# 
  1823  0019                     	;# 
  1824  0019                     	;# 
  1825  001A                     	;# 
  1826  001B                     	;# 
  1827  001C                     	;# 
  1828  001D                     	;# 
  1829  001E                     	;# 
  1830  001F                     	;# 
  1831  008C                     	;# 
  1832  008D                     	;# 
  1833  008E                     	;# 
  1834  0090                     	;# 
  1835  0091                     	;# 
  1836  0092                     	;# 
  1837  0093                     	;# 
  1838  0094                     	;# 
  1839  0097                     	;# 
  1840  009B                     	;# 
  1841  009B                     	;# 
  1842  009C                     	;# 
  1843  009D                     	;# 
  1844  009E                     	;# 
  1845  009F                     	;# 
  1846  010C                     	;# 
  1847  010D                     	;# 
  1848  010E                     	;# 
  1849  0111                     	;# 
  1850  0112                     	;# 
  1851  0113                     	;# 
  1852  0114                     	;# 
  1853  0115                     	;# 
  1854  0116                     	;# 
  1855  0117                     	;# 
  1856  0118                     	;# 
  1857  0119                     	;# 
  1858  018C                     	;# 
  1859  018D                     	;# 
  1860  018E                     	;# 
  1861  0197                     	;# 
  1862  0199                     	;# 
  1863  0199                     	;# 
  1864  0199                     	;# 
  1865  019A                     	;# 
  1866  019A                     	;# 
  1867  019A                     	;# 
  1868  019B                     	;# 
  1869  019B                     	;# 
  1870  019B                     	;# 
  1871  019B                     	;# 
  1872  019B                     	;# 
  1873  019C                     	;# 
  1874  019C                     	;# 
  1875  019C                     	;# 
  1876  019D                     	;# 
  1877  019D                     	;# 
  1878  019D                     	;# 
  1879  019E                     	;# 
  1880  019E                     	;# 
  1881  019E                     	;# 
  1882  019F                     	;# 
  1883  019F                     	;# 
  1884  019F                     	;# 
  1885  019F                     	;# 
  1886  019F                     	;# 
  1887  020C                     	;# 
  1888  020D                     	;# 
  1889  020E                     	;# 
  1890  0211                     	;# 
  1891  0211                     	;# 
  1892  0212                     	;# 
  1893  0212                     	;# 
  1894  0213                     	;# 
  1895  0213                     	;# 
  1896  0214                     	;# 
  1897  0214                     	;# 
  1898  0215                     	;# 
  1899  0215                     	;# 
  1900  0215                     	;# 
  1901  0215                     	;# 
  1902  0216                     	;# 
  1903  0216                     	;# 
  1904  0217                     	;# 
  1905  0217                     	;# 
  1906  028C                     	;# 
  1907  028D                     	;# 
  1908  028E                     	;# 
  1909  0291                     	;# 
  1910  0291                     	;# 
  1911  0292                     	;# 
  1912  0293                     	;# 
  1913  0294                     	;# 
  1914  0295                     	;# 
  1915  0295                     	;# 
  1916  0296                     	;# 
  1917  0297                     	;# 
  1918  0298                     	;# 
  1919  029F                     	;# 
  1920  030C                     	;# 
  1921  030D                     	;# 
  1922  030E                     	;# 
  1923  0311                     	;# 
  1924  0311                     	;# 
  1925  0312                     	;# 
  1926  0313                     	;# 
  1927  0314                     	;# 
  1928  0315                     	;# 
  1929  0315                     	;# 
  1930  0316                     	;# 
  1931  0317                     	;# 
  1932  0318                     	;# 
  1933  038C                     	;# 
  1934  038D                     	;# 
  1935  038E                     	;# 
  1936  0391                     	;# 
  1937  0392                     	;# 
  1938  0393                     	;# 
  1939  0394                     	;# 
  1940  0395                     	;# 
  1941  0396                     	;# 
  1942  0397                     	;# 
  1943  0398                     	;# 
  1944  0399                     	;# 
  1945  039A                     	;# 
  1946  039C                     	;# 
  1947  039D                     	;# 
  1948  039E                     	;# 
  1949  039F                     	;# 
  1950  0411                     	;# 
  1951  0411                     	;# 
  1952  0412                     	;# 
  1953  0413                     	;# 
  1954  0414                     	;# 
  1955  0415                     	;# 
  1956  0416                     	;# 
  1957  0417                     	;# 
  1958  0418                     	;# 
  1959  0418                     	;# 
  1960  0419                     	;# 
  1961  041A                     	;# 
  1962  041B                     	;# 
  1963  041C                     	;# 
  1964  041D                     	;# 
  1965  041E                     	;# 
  1966  041F                     	;# 
  1967  0498                     	;# 
  1968  0498                     	;# 
  1969  0499                     	;# 
  1970  049A                     	;# 
  1971  049B                     	;# 
  1972  049B                     	;# 
  1973  049C                     	;# 
  1974  049D                     	;# 
  1975  049E                     	;# 
  1976  049F                     	;# 
  1977  0617                     	;# 
  1978  0618                     	;# 
  1979  0619                     	;# 
  1980  0619                     	;# 
  1981  061A                     	;# 
  1982  061B                     	;# 
  1983  061C                     	;# 
  1984  061C                     	;# 
  1985  061F                     	;# 
  1986  0691                     	;# 
  1987  0692                     	;# 
  1988  0693                     	;# 
  1989  0694                     	;# 
  1990  0695                     	;# 
  1991  0696                     	;# 
  1992  0697                     	;# 
  1993  0698                     	;# 
  1994  0699                     	;# 
  1995  0711                     	;# 
  1996  0712                     	;# 
  1997  0713                     	;# 
  1998  0714                     	;# 
  1999  0715                     	;# 
  2000  0716                     	;# 
  2001  0717                     	;# 
  2002  0718                     	;# 
  2003  0719                     	;# 
  2004  0891                     	;# 
  2005  0891                     	;# 
  2006  0891                     	;# 
  2007  0891                     	;# 
  2008  0891                     	;# 
  2009  0891                     	;# 
  2010  0892                     	;# 
  2011  0892                     	;# 
  2012  0892                     	;# 
  2013  0893                     	;# 
  2014  0893                     	;# 
  2015  0893                     	;# 
  2016  0893                     	;# 
  2017  0893                     	;# 
  2018  0893                     	;# 
  2019  0894                     	;# 
  2020  0894                     	;# 
  2021  0894                     	;# 
  2022  0895                     	;# 
  2023  0895                     	;# 
  2024  0895                     	;# 
  2025  0896                     	;# 
  2026  0896                     	;# 
  2027  0896                     	;# 
  2028  089B                     	;# 
  2029  0911                     	;# 
  2030  0912                     	;# 
  2031  0913                     	;# 
  2032  0914                     	;# 
  2033  0915                     	;# 
  2034  0916                     	;# 
  2035  0918                     	;# 
  2036  0919                     	;# 
  2037  091A                     	;# 
  2038  091B                     	;# 
  2039  091C                     	;# 
  2040  091D                     	;# 
  2041  091E                     	;# 
  2042  091F                     	;# 
  2043  0E0F                     	;# 
  2044  0E10                     	;# 
  2045  0E11                     	;# 
  2046  0E12                     	;# 
  2047  0E13                     	;# 
  2048  0E14                     	;# 
  2049  0E15                     	;# 
  2050  0E16                     	;# 
  2051  0E17                     	;# 
  2052  0E18                     	;# 
  2053  0E19                     	;# 
  2054  0E1A                     	;# 
  2055  0E1B                     	;# 
  2056  0E1C                     	;# 
  2057  0E20                     	;# 
  2058  0E21                     	;# 
  2059  0E22                     	;# 
  2060  0E24                     	;# 
  2061  0E25                     	;# 
  2062  0E28                     	;# 
  2063  0E29                     	;# 
  2064  0E2A                     	;# 
  2065  0E2B                     	;# 
  2066  0E2C                     	;# 
  2067  0E2D                     	;# 
  2068  0E2E                     	;# 
  2069  0E2F                     	;# 
  2070  0E90                     	;# 
  2071  0E91                     	;# 
  2072  0E92                     	;# 
  2073  0E94                     	;# 
  2074  0E95                     	;# 
  2075  0E9C                     	;# 
  2076  0E9D                     	;# 
  2077  0E9E                     	;# 
  2078  0E9F                     	;# 
  2079  0EA0                     	;# 
  2080  0EA1                     	;# 
  2081  0EA2                     	;# 
  2082  0EA3                     	;# 
  2083  0EA4                     	;# 
  2084  0EA5                     	;# 
  2085  0EA6                     	;# 
  2086  0EA7                     	;# 
  2087  0F0F                     	;# 
  2088  0F10                     	;# 
  2089  0F11                     	;# 
  2090  0F12                     	;# 
  2091  0F13                     	;# 
  2092  0F14                     	;# 
  2093  0F15                     	;# 
  2094  0F16                     	;# 
  2095  0F17                     	;# 
  2096  0F18                     	;# 
  2097  0F19                     	;# 
  2098  0F1A                     	;# 
  2099  0F1B                     	;# 
  2100  0F1C                     	;# 
  2101  0F1D                     	;# 
  2102  0F1E                     	;# 
  2103  0F1F                     	;# 
  2104  0F20                     	;# 
  2105  0F21                     	;# 
  2106  0F22                     	;# 
  2107  0F23                     	;# 
  2108  0F24                     	;# 
  2109  0F25                     	;# 
  2110  0F26                     	;# 
  2111  0F27                     	;# 
  2112  0F28                     	;# 
  2113  0F29                     	;# 
  2114  0F2A                     	;# 
  2115  0F2B                     	;# 
  2116  0F2C                     	;# 
  2117  0F2D                     	;# 
  2118  0F2E                     	;# 
  2119  0F2F                     	;# 
  2120  0F30                     	;# 
  2121  0F31                     	;# 
  2122  0F32                     	;# 
  2123  0F33                     	;# 
  2124  0F34                     	;# 
  2125  0F35                     	;# 
  2126  0F36                     	;# 
  2127  0F37                     	;# 
  2128  0FE4                     	;# 
  2129  0FE5                     	;# 
  2130  0FE6                     	;# 
  2131  0FE7                     	;# 
  2132  0FE8                     	;# 
  2133  0FE9                     	;# 
  2134  0FEA                     	;# 
  2135  0FEB                     	;# 
  2136  0FED                     	;# 
  2137  0FEE                     	;# 
  2138  0FEF                     	;# 
  2139  0000                     	;# 
  2140  0001                     	;# 
  2141  0002                     	;# 
  2142  0003                     	;# 
  2143  0004                     	;# 
  2144  0005                     	;# 
  2145  0006                     	;# 
  2146  0007                     	;# 
  2147  0008                     	;# 
  2148  0009                     	;# 
  2149  000A                     	;# 
  2150  000B                     	;# 
  2151  000C                     	;# 
  2152  000D                     	;# 
  2153  000E                     	;# 
  2154  0010                     	;# 
  2155  0011                     	;# 
  2156  0012                     	;# 
  2157  0013                     	;# 
  2158  0014                     	;# 
  2159  0015                     	;# 
  2160  0015                     	;# 
  2161  0016                     	;# 
  2162  0016                     	;# 
  2163  0017                     	;# 
  2164  0018                     	;# 
  2165  0019                     	;# 
  2166  0019                     	;# 
  2167  001A                     	;# 
  2168  001B                     	;# 
  2169  001C                     	;# 
  2170  001D                     	;# 
  2171  001E                     	;# 
  2172  001F                     	;# 
  2173  008C                     	;# 
  2174  008D                     	;# 
  2175  008E                     	;# 
  2176  0090                     	;# 
  2177  0091                     	;# 
  2178  0092                     	;# 
  2179  0093                     	;# 
  2180  0094                     	;# 
  2181  0097                     	;# 
  2182  009B                     	;# 
  2183  009B                     	;# 
  2184  009C                     	;# 
  2185  009D                     	;# 
  2186  009E                     	;# 
  2187  009F                     	;# 
  2188  010C                     	;# 
  2189  010D                     	;# 
  2190  010E                     	;# 
  2191  0111                     	;# 
  2192  0112                     	;# 
  2193  0113                     	;# 
  2194  0114                     	;# 
  2195  0115                     	;# 
  2196  0116                     	;# 
  2197  0117                     	;# 
  2198  0118                     	;# 
  2199  0119                     	;# 
  2200  018C                     	;# 
  2201  018D                     	;# 
  2202  018E                     	;# 
  2203  0197                     	;# 
  2204  0199                     	;# 
  2205  0199                     	;# 
  2206  0199                     	;# 
  2207  019A                     	;# 
  2208  019A                     	;# 
  2209  019A                     	;# 
  2210  019B                     	;# 
  2211  019B                     	;# 
  2212  019B                     	;# 
  2213  019B                     	;# 
  2214  019B                     	;# 
  2215  019C                     	;# 
  2216  019C                     	;# 
  2217  019C                     	;# 
  2218  019D                     	;# 
  2219  019D                     	;# 
  2220  019D                     	;# 
  2221  019E                     	;# 
  2222  019E                     	;# 
  2223  019E                     	;# 
  2224  019F                     	;# 
  2225  019F                     	;# 
  2226  019F                     	;# 
  2227  019F                     	;# 
  2228  019F                     	;# 
  2229  020C                     	;# 
  2230  020D                     	;# 
  2231  020E                     	;# 
  2232  0211                     	;# 
  2233  0211                     	;# 
  2234  0212                     	;# 
  2235  0212                     	;# 
  2236  0213                     	;# 
  2237  0213                     	;# 
  2238  0214                     	;# 
  2239  0214                     	;# 
  2240  0215                     	;# 
  2241  0215                     	;# 
  2242  0215                     	;# 
  2243  0215                     	;# 
  2244  0216                     	;# 
  2245  0216                     	;# 
  2246  0217                     	;# 
  2247  0217                     	;# 
  2248  028C                     	;# 
  2249  028D                     	;# 
  2250  028E                     	;# 
  2251  0291                     	;# 
  2252  0291                     	;# 
  2253  0292                     	;# 
  2254  0293                     	;# 
  2255  0294                     	;# 
  2256  0295                     	;# 
  2257  0295                     	;# 
  2258  0296                     	;# 
  2259  0297                     	;# 
  2260  0298                     	;# 
  2261  029F                     	;# 
  2262  030C                     	;# 
  2263  030D                     	;# 
  2264  030E                     	;# 
  2265  0311                     	;# 
  2266  0311                     	;# 
  2267  0312                     	;# 
  2268  0313                     	;# 
  2269  0314                     	;# 
  2270  0315                     	;# 
  2271  0315                     	;# 
  2272  0316                     	;# 
  2273  0317                     	;# 
  2274  0318                     	;# 
  2275  038C                     	;# 
  2276  038D                     	;# 
  2277  038E                     	;# 
  2278  0391                     	;# 
  2279  0392                     	;# 
  2280  0393                     	;# 
  2281  0394                     	;# 
  2282  0395                     	;# 
  2283  0396                     	;# 
  2284  0397                     	;# 
  2285  0398                     	;# 
  2286  0399                     	;# 
  2287  039A                     	;# 
  2288  039C                     	;# 
  2289  039D                     	;# 
  2290  039E                     	;# 
  2291  039F                     	;# 
  2292  0411                     	;# 
  2293  0411                     	;# 
  2294  0412                     	;# 
  2295  0413                     	;# 
  2296  0414                     	;# 
  2297  0415                     	;# 
  2298  0416                     	;# 
  2299  0417                     	;# 
  2300  0418                     	;# 
  2301  0418                     	;# 
  2302  0419                     	;# 
  2303  041A                     	;# 
  2304  041B                     	;# 
  2305  041C                     	;# 
  2306  041D                     	;# 
  2307  041E                     	;# 
  2308  041F                     	;# 
  2309  0498                     	;# 
  2310  0498                     	;# 
  2311  0499                     	;# 
  2312  049A                     	;# 
  2313  049B                     	;# 
  2314  049B                     	;# 
  2315  049C                     	;# 
  2316  049D                     	;# 
  2317  049E                     	;# 
  2318  049F                     	;# 
  2319  0617                     	;# 
  2320  0618                     	;# 
  2321  0619                     	;# 
  2322  0619                     	;# 
  2323  061A                     	;# 
  2324  061B                     	;# 
  2325  061C                     	;# 
  2326  061C                     	;# 
  2327  061F                     	;# 
  2328  0691                     	;# 
  2329  0692                     	;# 
  2330  0693                     	;# 
  2331  0694                     	;# 
  2332  0695                     	;# 
  2333  0696                     	;# 
  2334  0697                     	;# 
  2335  0698                     	;# 
  2336  0699                     	;# 
  2337  0711                     	;# 
  2338  0712                     	;# 
  2339  0713                     	;# 
  2340  0714                     	;# 
  2341  0715                     	;# 
  2342  0716                     	;# 
  2343  0717                     	;# 
  2344  0718                     	;# 
  2345  0719                     	;# 
  2346  0891                     	;# 
  2347  0891                     	;# 
  2348  0891                     	;# 
  2349  0891                     	;# 
  2350  0891                     	;# 
  2351  0891                     	;# 
  2352  0892                     	;# 
  2353  0892                     	;# 
  2354  0892                     	;# 
  2355  0893                     	;# 
  2356  0893                     	;# 
  2357  0893                     	;# 
  2358  0893                     	;# 
  2359  0893                     	;# 
  2360  0893                     	;# 
  2361  0894                     	;# 
  2362  0894                     	;# 
  2363  0894                     	;# 
  2364  0895                     	;# 
  2365  0895                     	;# 
  2366  0895                     	;# 
  2367  0896                     	;# 
  2368  0896                     	;# 
  2369  0896                     	;# 
  2370  089B                     	;# 
  2371  0911                     	;# 
  2372  0912                     	;# 
  2373  0913                     	;# 
  2374  0914                     	;# 
  2375  0915                     	;# 
  2376  0916                     	;# 
  2377  0918                     	;# 
  2378  0919                     	;# 
  2379  091A                     	;# 
  2380  091B                     	;# 
  2381  091C                     	;# 
  2382  091D                     	;# 
  2383  091E                     	;# 
  2384  091F                     	;# 
  2385  0E0F                     	;# 
  2386  0E10                     	;# 
  2387  0E11                     	;# 
  2388  0E12                     	;# 
  2389  0E13                     	;# 
  2390  0E14                     	;# 
  2391  0E15                     	;# 
  2392  0E16                     	;# 
  2393  0E17                     	;# 
  2394  0E18                     	;# 
  2395  0E19                     	;# 
  2396  0E1A                     	;# 
  2397  0E1B                     	;# 
  2398  0E1C                     	;# 
  2399  0E20                     	;# 
  2400  0E21                     	;# 
  2401  0E22                     	;# 
  2402  0E24                     	;# 
  2403  0E25                     	;# 
  2404  0E28                     	;# 
  2405  0E29                     	;# 
  2406  0E2A                     	;# 
  2407  0E2B                     	;# 
  2408  0E2C                     	;# 
  2409  0E2D                     	;# 
  2410  0E2E                     	;# 
  2411  0E2F                     	;# 
  2412  0E90                     	;# 
  2413  0E91                     	;# 
  2414  0E92                     	;# 
  2415  0E94                     	;# 
  2416  0E95                     	;# 
  2417  0E9C                     	;# 
  2418  0E9D                     	;# 
  2419  0E9E                     	;# 
  2420  0E9F                     	;# 
  2421  0EA0                     	;# 
  2422  0EA1                     	;# 
  2423  0EA2                     	;# 
  2424  0EA3                     	;# 
  2425  0EA4                     	;# 
  2426  0EA5                     	;# 
  2427  0EA6                     	;# 
  2428  0EA7                     	;# 
  2429  0F0F                     	;# 
  2430  0F10                     	;# 
  2431  0F11                     	;# 
  2432  0F12                     	;# 
  2433  0F13                     	;# 
  2434  0F14                     	;# 
  2435  0F15                     	;# 
  2436  0F16                     	;# 
  2437  0F17                     	;# 
  2438  0F18                     	;# 
  2439  0F19                     	;# 
  2440  0F1A                     	;# 
  2441  0F1B                     	;# 
  2442  0F1C                     	;# 
  2443  0F1D                     	;# 
  2444  0F1E                     	;# 
  2445  0F1F                     	;# 
  2446  0F20                     	;# 
  2447  0F21                     	;# 
  2448  0F22                     	;# 
  2449  0F23                     	;# 
  2450  0F24                     	;# 
  2451  0F25                     	;# 
  2452  0F26                     	;# 
  2453  0F27                     	;# 
  2454  0F28                     	;# 
  2455  0F29                     	;# 
  2456  0F2A                     	;# 
  2457  0F2B                     	;# 
  2458  0F2C                     	;# 
  2459  0F2D                     	;# 
  2460  0F2E                     	;# 
  2461  0F2F                     	;# 
  2462  0F30                     	;# 
  2463  0F31                     	;# 
  2464  0F32                     	;# 
  2465  0F33                     	;# 
  2466  0F34                     	;# 
  2467  0F35                     	;# 
  2468  0F36                     	;# 
  2469  0F37                     	;# 
  2470  0FE4                     	;# 
  2471  0FE5                     	;# 
  2472  0FE6                     	;# 
  2473  0FE7                     	;# 
  2474  0FE8                     	;# 
  2475  0FE9                     	;# 
  2476  0FEA                     	;# 
  2477  0FEB                     	;# 
  2478  0FED                     	;# 
  2479  0FEE                     	;# 
  2480  0FEF                     	;# 
  2481  0000                     	;# 
  2482  0001                     	;# 
  2483  0002                     	;# 
  2484  0003                     	;# 
  2485  0004                     	;# 
  2486  0005                     	;# 
  2487  0006                     	;# 
  2488  0007                     	;# 
  2489  0008                     	;# 
  2490  0009                     	;# 
  2491  000A                     	;# 
  2492  000B                     	;# 
  2493  000C                     	;# 
  2494  000D                     	;# 
  2495  000E                     	;# 
  2496  0010                     	;# 
  2497  0011                     	;# 
  2498  0012                     	;# 
  2499  0013                     	;# 
  2500  0014                     	;# 
  2501  0015                     	;# 
  2502  0015                     	;# 
  2503  0016                     	;# 
  2504  0016                     	;# 
  2505  0017                     	;# 
  2506  0018                     	;# 
  2507  0019                     	;# 
  2508  0019                     	;# 
  2509  001A                     	;# 
  2510  001B                     	;# 
  2511  001C                     	;# 
  2512  001D                     	;# 
  2513  001E                     	;# 
  2514  001F                     	;# 
  2515  008C                     	;# 
  2516  008D                     	;# 
  2517  008E                     	;# 
  2518  0090                     	;# 
  2519  0091                     	;# 
  2520  0092                     	;# 
  2521  0093                     	;# 
  2522  0094                     	;# 
  2523  0097                     	;# 
  2524  009B                     	;# 
  2525  009B                     	;# 
  2526  009C                     	;# 
  2527  009D                     	;# 
  2528  009E                     	;# 
  2529  009F                     	;# 
  2530  010C                     	;# 
  2531  010D                     	;# 
  2532  010E                     	;# 
  2533  0111                     	;# 
  2534  0112                     	;# 
  2535  0113                     	;# 
  2536  0114                     	;# 
  2537  0115                     	;# 
  2538  0116                     	;# 
  2539  0117                     	;# 
  2540  0118                     	;# 
  2541  0119                     	;# 
  2542  018C                     	;# 
  2543  018D                     	;# 
  2544  018E                     	;# 
  2545  0197                     	;# 
  2546  0199                     	;# 
  2547  0199                     	;# 
  2548  0199                     	;# 
  2549  019A                     	;# 
  2550  019A                     	;# 
  2551  019A                     	;# 
  2552  019B                     	;# 
  2553  019B                     	;# 
  2554  019B                     	;# 
  2555  019B                     	;# 
  2556  019B                     	;# 
  2557  019C                     	;# 
  2558  019C                     	;# 
  2559  019C                     	;# 
  2560  019D                     	;# 
  2561  019D                     	;# 
  2562  019D                     	;# 
  2563  019E                     	;# 
  2564  019E                     	;# 
  2565  019E                     	;# 
  2566  019F                     	;# 
  2567  019F                     	;# 
  2568  019F                     	;# 
  2569  019F                     	;# 
  2570  019F                     	;# 
  2571  020C                     	;# 
  2572  020D                     	;# 
  2573  020E                     	;# 
  2574  0211                     	;# 
  2575  0211                     	;# 
  2576  0212                     	;# 
  2577  0212                     	;# 
  2578  0213                     	;# 
  2579  0213                     	;# 
  2580  0214                     	;# 
  2581  0214                     	;# 
  2582  0215                     	;# 
  2583  0215                     	;# 
  2584  0215                     	;# 
  2585  0215                     	;# 
  2586  0216                     	;# 
  2587  0216                     	;# 
  2588  0217                     	;# 
  2589  0217                     	;# 
  2590  028C                     	;# 
  2591  028D                     	;# 
  2592  028E                     	;# 
  2593  0291                     	;# 
  2594  0291                     	;# 
  2595  0292                     	;# 
  2596  0293                     	;# 
  2597  0294                     	;# 
  2598  0295                     	;# 
  2599  0295                     	;# 
  2600  0296                     	;# 
  2601  0297                     	;# 
  2602  0298                     	;# 
  2603  029F                     	;# 
  2604  030C                     	;# 
  2605  030D                     	;# 
  2606  030E                     	;# 
  2607  0311                     	;# 
  2608  0311                     	;# 
  2609  0312                     	;# 
  2610  0313                     	;# 
  2611  0314                     	;# 
  2612  0315                     	;# 
  2613  0315                     	;# 
  2614  0316                     	;# 
  2615  0317                     	;# 
  2616  0318                     	;# 
  2617  038C                     	;# 
  2618  038D                     	;# 
  2619  038E                     	;# 
  2620  0391                     	;# 
  2621  0392                     	;# 
  2622  0393                     	;# 
  2623  0394                     	;# 
  2624  0395                     	;# 
  2625  0396                     	;# 
  2626  0397                     	;# 
  2627  0398                     	;# 
  2628  0399                     	;# 
  2629  039A                     	;# 
  2630  039C                     	;# 
  2631  039D                     	;# 
  2632  039E                     	;# 
  2633  039F                     	;# 
  2634  0411                     	;# 
  2635  0411                     	;# 
  2636  0412                     	;# 
  2637  0413                     	;# 
  2638  0414                     	;# 
  2639  0415                     	;# 
  2640  0416                     	;# 
  2641  0417                     	;# 
  2642  0418                     	;# 
  2643  0418                     	;# 
  2644  0419                     	;# 
  2645  041A                     	;# 
  2646  041B                     	;# 
  2647  041C                     	;# 
  2648  041D                     	;# 
  2649  041E                     	;# 
  2650  041F                     	;# 
  2651  0498                     	;# 
  2652  0498                     	;# 
  2653  0499                     	;# 
  2654  049A                     	;# 
  2655  049B                     	;# 
  2656  049B                     	;# 
  2657  049C                     	;# 
  2658  049D                     	;# 
  2659  049E                     	;# 
  2660  049F                     	;# 
  2661  0617                     	;# 
  2662  0618                     	;# 
  2663  0619                     	;# 
  2664  0619                     	;# 
  2665  061A                     	;# 
  2666  061B                     	;# 
  2667  061C                     	;# 
  2668  061C                     	;# 
  2669  061F                     	;# 
  2670  0691                     	;# 
  2671  0692                     	;# 
  2672  0693                     	;# 
  2673  0694                     	;# 
  2674  0695                     	;# 
  2675  0696                     	;# 
  2676  0697                     	;# 
  2677  0698                     	;# 
  2678  0699                     	;# 
  2679  0711                     	;# 
  2680  0712                     	;# 
  2681  0713                     	;# 
  2682  0714                     	;# 
  2683  0715                     	;# 
  2684  0716                     	;# 
  2685  0717                     	;# 
  2686  0718                     	;# 
  2687  0719                     	;# 
  2688  0891                     	;# 
  2689  0891                     	;# 
  2690  0891                     	;# 
  2691  0891                     	;# 
  2692  0891                     	;# 
  2693  0891                     	;# 
  2694  0892                     	;# 
  2695  0892                     	;# 
  2696  0892                     	;# 
  2697  0893                     	;# 
  2698  0893                     	;# 
  2699  0893                     	;# 
  2700  0893                     	;# 
  2701  0893                     	;# 
  2702  0893                     	;# 
  2703  0894                     	;# 
  2704  0894                     	;# 
  2705  0894                     	;# 
  2706  0895                     	;# 
  2707  0895                     	;# 
  2708  0895                     	;# 
  2709  0896                     	;# 
  2710  0896                     	;# 
  2711  0896                     	;# 
  2712  089B                     	;# 
  2713  0911                     	;# 
  2714  0912                     	;# 
  2715  0913                     	;# 
  2716  0914                     	;# 
  2717  0915                     	;# 
  2718  0916                     	;# 
  2719  0918                     	;# 
  2720  0919                     	;# 
  2721  091A                     	;# 
  2722  091B                     	;# 
  2723  091C                     	;# 
  2724  091D                     	;# 
  2725  091E                     	;# 
  2726  091F                     	;# 
  2727  0E0F                     	;# 
  2728  0E10                     	;# 
  2729  0E11                     	;# 
  2730  0E12                     	;# 
  2731  0E13                     	;# 
  2732  0E14                     	;# 
  2733  0E15                     	;# 
  2734  0E16                     	;# 
  2735  0E17                     	;# 
  2736  0E18                     	;# 
  2737  0E19                     	;# 
  2738  0E1A                     	;# 
  2739  0E1B                     	;# 
  2740  0E1C                     	;# 
  2741  0E20                     	;# 
  2742  0E21                     	;# 
  2743  0E22                     	;# 
  2744  0E24                     	;# 
  2745  0E25                     	;# 
  2746  0E28                     	;# 
  2747  0E29                     	;# 
  2748  0E2A                     	;# 
  2749  0E2B                     	;# 
  2750  0E2C                     	;# 
  2751  0E2D                     	;# 
  2752  0E2E                     	;# 
  2753  0E2F                     	;# 
  2754  0E90                     	;# 
  2755  0E91                     	;# 
  2756  0E92                     	;# 
  2757  0E94                     	;# 
  2758  0E95                     	;# 
  2759  0E9C                     	;# 
  2760  0E9D                     	;# 
  2761  0E9E                     	;# 
  2762  0E9F                     	;# 
  2763  0EA0                     	;# 
  2764  0EA1                     	;# 
  2765  0EA2                     	;# 
  2766  0EA3                     	;# 
  2767  0EA4                     	;# 
  2768  0EA5                     	;# 
  2769  0EA6                     	;# 
  2770  0EA7                     	;# 
  2771  0F0F                     	;# 
  2772  0F10                     	;# 
  2773  0F11                     	;# 
  2774  0F12                     	;# 
  2775  0F13                     	;# 
  2776  0F14                     	;# 
  2777  0F15                     	;# 
  2778  0F16                     	;# 
  2779  0F17                     	;# 
  2780  0F18                     	;# 
  2781  0F19                     	;# 
  2782  0F1A                     	;# 
  2783  0F1B                     	;# 
  2784  0F1C                     	;# 
  2785  0F1D                     	;# 
  2786  0F1E                     	;# 
  2787  0F1F                     	;# 
  2788  0F20                     	;# 
  2789  0F21                     	;# 
  2790  0F22                     	;# 
  2791  0F23                     	;# 
  2792  0F24                     	;# 
  2793  0F25                     	;# 
  2794  0F26                     	;# 
  2795  0F27                     	;# 
  2796  0F28                     	;# 
  2797  0F29                     	;# 
  2798  0F2A                     	;# 
  2799  0F2B                     	;# 
  2800  0F2C                     	;# 
  2801  0F2D                     	;# 
  2802  0F2E                     	;# 
  2803  0F2F                     	;# 
  2804  0F30                     	;# 
  2805  0F31                     	;# 
  2806  0F32                     	;# 
  2807  0F33                     	;# 
  2808  0F34                     	;# 
  2809  0F35                     	;# 
  2810  0F36                     	;# 
  2811  0F37                     	;# 
  2812  0FE4                     	;# 
  2813  0FE5                     	;# 
  2814  0FE6                     	;# 
  2815  0FE7                     	;# 
  2816  0FE8                     	;# 
  2817  0FE9                     	;# 
  2818  0FEA                     	;# 
  2819  0FEB                     	;# 
  2820  0FED                     	;# 
  2821  0FEE                     	;# 
  2822  0FEF                     	;# 
  2823  0000                     	;# 
  2824  0001                     	;# 
  2825  0002                     	;# 
  2826  0003                     	;# 
  2827  0004                     	;# 
  2828  0005                     	;# 
  2829  0006                     	;# 
  2830  0007                     	;# 
  2831  0008                     	;# 
  2832  0009                     	;# 
  2833  000A                     	;# 
  2834  000B                     	;# 
  2835  000C                     	;# 
  2836  000D                     	;# 
  2837  000E                     	;# 
  2838  0010                     	;# 
  2839  0011                     	;# 
  2840  0012                     	;# 
  2841  0013                     	;# 
  2842  0014                     	;# 
  2843  0015                     	;# 
  2844  0015                     	;# 
  2845  0016                     	;# 
  2846  0016                     	;# 
  2847  0017                     	;# 
  2848  0018                     	;# 
  2849  0019                     	;# 
  2850  0019                     	;# 
  2851  001A                     	;# 
  2852  001B                     	;# 
  2853  001C                     	;# 
  2854  001D                     	;# 
  2855  001E                     	;# 
  2856  001F                     	;# 
  2857  008C                     	;# 
  2858  008D                     	;# 
  2859  008E                     	;# 
  2860  0090                     	;# 
  2861  0091                     	;# 
  2862  0092                     	;# 
  2863  0093                     	;# 
  2864  0094                     	;# 
  2865  0097                     	;# 
  2866  009B                     	;# 
  2867  009B                     	;# 
  2868  009C                     	;# 
  2869  009D                     	;# 
  2870  009E                     	;# 
  2871  009F                     	;# 
  2872  010C                     	;# 
  2873  010D                     	;# 
  2874  010E                     	;# 
  2875  0111                     	;# 
  2876  0112                     	;# 
  2877  0113                     	;# 
  2878  0114                     	;# 
  2879  0115                     	;# 
  2880  0116                     	;# 
  2881  0117                     	;# 
  2882  0118                     	;# 
  2883  0119                     	;# 
  2884  018C                     	;# 
  2885  018D                     	;# 
  2886  018E                     	;# 
  2887  0197                     	;# 
  2888  0199                     	;# 
  2889  0199                     	;# 
  2890  0199                     	;# 
  2891  019A                     	;# 
  2892  019A                     	;# 
  2893  019A                     	;# 
  2894  019B                     	;# 
  2895  019B                     	;# 
  2896  019B                     	;# 
  2897  019B                     	;# 
  2898  019B                     	;# 
  2899  019C                     	;# 
  2900  019C                     	;# 
  2901  019C                     	;# 
  2902  019D                     	;# 
  2903  019D                     	;# 
  2904  019D                     	;# 
  2905  019E                     	;# 
  2906  019E                     	;# 
  2907  019E                     	;# 
  2908  019F                     	;# 
  2909  019F                     	;# 
  2910  019F                     	;# 
  2911  019F                     	;# 
  2912  019F                     	;# 
  2913  020C                     	;# 
  2914  020D                     	;# 
  2915  020E                     	;# 
  2916  0211                     	;# 
  2917  0211                     	;# 
  2918  0212                     	;# 
  2919  0212                     	;# 
  2920  0213                     	;# 
  2921  0213                     	;# 
  2922  0214                     	;# 
  2923  0214                     	;# 
  2924  0215                     	;# 
  2925  0215                     	;# 
  2926  0215                     	;# 
  2927  0215                     	;# 
  2928  0216                     	;# 
  2929  0216                     	;# 
  2930  0217                     	;# 
  2931  0217                     	;# 
  2932  028C                     	;# 
  2933  028D                     	;# 
  2934  028E                     	;# 
  2935  0291                     	;# 
  2936  0291                     	;# 
  2937  0292                     	;# 
  2938  0293                     	;# 
  2939  0294                     	;# 
  2940  0295                     	;# 
  2941  0295                     	;# 
  2942  0296                     	;# 
  2943  0297                     	;# 
  2944  0298                     	;# 
  2945  029F                     	;# 
  2946  030C                     	;# 
  2947  030D                     	;# 
  2948  030E                     	;# 
  2949  0311                     	;# 
  2950  0311                     	;# 
  2951  0312                     	;# 
  2952  0313                     	;# 
  2953  0314                     	;# 
  2954  0315                     	;# 
  2955  0315                     	;# 
  2956  0316                     	;# 
  2957  0317                     	;# 
  2958  0318                     	;# 
  2959  038C                     	;# 
  2960  038D                     	;# 
  2961  038E                     	;# 
  2962  0391                     	;# 
  2963  0392                     	;# 
  2964  0393                     	;# 
  2965  0394                     	;# 
  2966  0395                     	;# 
  2967  0396                     	;# 
  2968  0397                     	;# 
  2969  0398                     	;# 
  2970  0399                     	;# 
  2971  039A                     	;# 
  2972  039C                     	;# 
  2973  039D                     	;# 
  2974  039E                     	;# 
  2975  039F                     	;# 
  2976  0411                     	;# 
  2977  0411                     	;# 
  2978  0412                     	;# 
  2979  0413                     	;# 
  2980  0414                     	;# 
  2981  0415                     	;# 
  2982  0416                     	;# 
  2983  0417                     	;# 
  2984  0418                     	;# 
  2985  0418                     	;# 
  2986  0419                     	;# 
  2987  041A                     	;# 
  2988  041B                     	;# 
  2989  041C                     	;# 
  2990  041D                     	;# 
  2991  041E                     	;# 
  2992  041F                     	;# 
  2993  0498                     	;# 
  2994  0498                     	;# 
  2995  0499                     	;# 
  2996  049A                     	;# 
  2997  049B                     	;# 
  2998  049B                     	;# 
  2999  049C                     	;# 
  3000  049D                     	;# 
  3001  049E                     	;# 
  3002  049F                     	;# 
  3003  0617                     	;# 
  3004  0618                     	;# 
  3005  0619                     	;# 
  3006  0619                     	;# 
  3007  061A                     	;# 
  3008  061B                     	;# 
  3009  061C                     	;# 
  3010  061C                     	;# 
  3011  061F                     	;# 
  3012  0691                     	;# 
  3013  0692                     	;# 
  3014  0693                     	;# 
  3015  0694                     	;# 
  3016  0695                     	;# 
  3017  0696                     	;# 
  3018  0697                     	;# 
  3019  0698                     	;# 
  3020  0699                     	;# 
  3021  0711                     	;# 
  3022  0712                     	;# 
  3023  0713                     	;# 
  3024  0714                     	;# 
  3025  0715                     	;# 
  3026  0716                     	;# 
  3027  0717                     	;# 
  3028  0718                     	;# 
  3029  0719                     	;# 
  3030  0891                     	;# 
  3031  0891                     	;# 
  3032  0891                     	;# 
  3033  0891                     	;# 
  3034  0891                     	;# 
  3035  0891                     	;# 
  3036  0892                     	;# 
  3037  0892                     	;# 
  3038  0892                     	;# 
  3039  0893                     	;# 
  3040  0893                     	;# 
  3041  0893                     	;# 
  3042  0893                     	;# 
  3043  0893                     	;# 
  3044  0893                     	;# 
  3045  0894                     	;# 
  3046  0894                     	;# 
  3047  0894                     	;# 
  3048  0895                     	;# 
  3049  0895                     	;# 
  3050  0895                     	;# 
  3051  0896                     	;# 
  3052  0896                     	;# 
  3053  0896                     	;# 
  3054  089B                     	;# 
  3055  0911                     	;# 
  3056  0912                     	;# 
  3057  0913                     	;# 
  3058  0914                     	;# 
  3059  0915                     	;# 
  3060  0916                     	;# 
  3061  0918                     	;# 
  3062  0919                     	;# 
  3063  091A                     	;# 
  3064  091B                     	;# 
  3065  091C                     	;# 
  3066  091D                     	;# 
  3067  091E                     	;# 
  3068  091F                     	;# 
  3069  0E0F                     	;# 
  3070  0E10                     	;# 
  3071  0E11                     	;# 
  3072  0E12                     	;# 
  3073  0E13                     	;# 
  3074  0E14                     	;# 
  3075  0E15                     	;# 
  3076  0E16                     	;# 
  3077  0E17                     	;# 
  3078  0E18                     	;# 
  3079  0E19                     	;# 
  3080  0E1A                     	;# 
  3081  0E1B                     	;# 
  3082  0E1C                     	;# 
  3083  0E20                     	;# 
  3084  0E21                     	;# 
  3085  0E22                     	;# 
  3086  0E24                     	;# 
  3087  0E25                     	;# 
  3088  0E28                     	;# 
  3089  0E29                     	;# 
  3090  0E2A                     	;# 
  3091  0E2B                     	;# 
  3092  0E2C                     	;# 
  3093  0E2D                     	;# 
  3094  0E2E                     	;# 
  3095  0E2F                     	;# 
  3096  0E90                     	;# 
  3097  0E91                     	;# 
  3098  0E92                     	;# 
  3099  0E94                     	;# 
  3100  0E95                     	;# 
  3101  0E9C                     	;# 
  3102  0E9D                     	;# 
  3103  0E9E                     	;# 
  3104  0E9F                     	;# 
  3105  0EA0                     	;# 
  3106  0EA1                     	;# 
  3107  0EA2                     	;# 
  3108  0EA3                     	;# 
  3109  0EA4                     	;# 
  3110  0EA5                     	;# 
  3111  0EA6                     	;# 
  3112  0EA7                     	;# 
  3113  0F0F                     	;# 
  3114  0F10                     	;# 
  3115  0F11                     	;# 
  3116  0F12                     	;# 
  3117  0F13                     	;# 
  3118  0F14                     	;# 
  3119  0F15                     	;# 
  3120  0F16                     	;# 
  3121  0F17                     	;# 
  3122  0F18                     	;# 
  3123  0F19                     	;# 
  3124  0F1A                     	;# 
  3125  0F1B                     	;# 
  3126  0F1C                     	;# 
  3127  0F1D                     	;# 
  3128  0F1E                     	;# 
  3129  0F1F                     	;# 
  3130  0F20                     	;# 
  3131  0F21                     	;# 
  3132  0F22                     	;# 
  3133  0F23                     	;# 
  3134  0F24                     	;# 
  3135  0F25                     	;# 
  3136  0F26                     	;# 
  3137  0F27                     	;# 
  3138  0F28                     	;# 
  3139  0F29                     	;# 
  3140  0F2A                     	;# 
  3141  0F2B                     	;# 
  3142  0F2C                     	;# 
  3143  0F2D                     	;# 
  3144  0F2E                     	;# 
  3145  0F2F                     	;# 
  3146  0F30                     	;# 
  3147  0F31                     	;# 
  3148  0F32                     	;# 
  3149  0F33                     	;# 
  3150  0F34                     	;# 
  3151  0F35                     	;# 
  3152  0F36                     	;# 
  3153  0F37                     	;# 
  3154  0FE4                     	;# 
  3155  0FE5                     	;# 
  3156  0FE6                     	;# 
  3157  0FE7                     	;# 
  3158  0FE8                     	;# 
  3159  0FE9                     	;# 
  3160  0FEA                     	;# 
  3161  0FEB                     	;# 
  3162  0FED                     	;# 
  3163  0FEE                     	;# 
  3164  0FEF                     	;# 
  3165                           
  3166                           	psect	idataBANK0
  3167  048B                     __pidataBANK0:
  3168                           
  3169                           ;initializer for _adc_chans
  3170  048B  340C               	retlw	12
  3171  048C  340D               	retlw	13
  3172  048D  3402               	retlw	2
  3173  048E  3404               	retlw	4
  3174  08F0                     _time15_absaddr	set	2288
  3175  08E0                     _time14_absaddr	set	2272
  3176  08D0                     _time13_absaddr	set	2256
  3177  08C0                     _time12_absaddr	set	2240
  3178  08B0                     _time11_absaddr	set	2224
  3179  08A0                     _time10_absaddr	set	2208
  3180  0890                     _time09_absaddr	set	2192
  3181  0880                     _time08_absaddr	set	2176
  3182  0870                     _time07_absaddr	set	2160
  3183  0860                     _time06_absaddr	set	2144
  3184  0850                     _time05_absaddr	set	2128
  3185  0840                     _time04_absaddr	set	2112
  3186  0830                     _time03_absaddr	set	2096
  3187  0820                     _time02_absaddr	set	2080
  3188  0810                     _time01_absaddr	set	2064
  3189  0800                     _time00_absaddr	set	2048
  3190                           
  3191                           	psect	stringtext1
  3192  0900                     __pstringtext1:
  3193  0900                     _spi1_configuration:
  3194  0900  3420               	retlw	32
  3195  0901  3440               	retlw	64
  3196  0902  3401               	retlw	1
  3197  0903  3400               	retlw	0
  3198  0904                     __end_of_spi1_configuration:
  3199  08F0                     _time15_absaddr	set	2288
  3200                           
  3201                           	psect	_time15_text
  3202  08F0                     __p_time15_text:
  3203  08F0                     _time15:
  3204  08F0  340C               	retlw	12
  3205  08F1  3400               	retlw	0
  3206  08F2  340B               	retlw	11
  3207  08F3  3400               	retlw	0
  3208  08F4  340A               	retlw	10
  3209  08F5  3400               	retlw	0
  3210  08F6  3409               	retlw	9
  3211  08F7  3400               	retlw	0
  3212  08F8  3408               	retlw	8
  3213  08F9  3400               	retlw	0
  3214  08FA  3408               	retlw	8
  3215  08FB  3400               	retlw	0
  3216  08FC  3407               	retlw	7
  3217  08FD  3400               	retlw	0
  3218  08FE  3407               	retlw	7
  3219  08FF  3400               	retlw	0
  3220  0900                     __end_of_time15:
  3221  08E0                     _time14_absaddr	set	2272
  3222                           
  3223                           	psect	_time14_text
  3224  08E0                     __p_time14_text:
  3225  08E0                     _time14:
  3226  08E0  3419               	retlw	25
  3227  08E1  3400               	retlw	0
  3228  08E2  3417               	retlw	23
  3229  08E3  3400               	retlw	0
  3230  08E4  3416               	retlw	22
  3231  08E5  3400               	retlw	0
  3232  08E6  3414               	retlw	20
  3233  08E7  3400               	retlw	0
  3234  08E8  3412               	retlw	18
  3235  08E9  3400               	retlw	0
  3236  08EA  3410               	retlw	16
  3237  08EB  3400               	retlw	0
  3238  08EC  340F               	retlw	15
  3239  08ED  3400               	retlw	0
  3240  08EE  340E               	retlw	14
  3241  08EF  3400               	retlw	0
  3242  08F0                     __end_of_time14:
  3243  08D0                     _time13_absaddr	set	2256
  3244                           
  3245                           	psect	_time13_text
  3246  08D0                     __p_time13_text:
  3247  08D0                     _time13:
  3248  08D0  3436               	retlw	54
  3249  08D1  3400               	retlw	0
  3250  08D2  3431               	retlw	49
  3251  08D3  3400               	retlw	0
  3252  08D4  342D               	retlw	45
  3253  08D5  3400               	retlw	0
  3254  08D6  3429               	retlw	41
  3255  08D7  3400               	retlw	0
  3256  08D8  3425               	retlw	37
  3257  08D9  3400               	retlw	0
  3258  08DA  3422               	retlw	34
  3259  08DB  3400               	retlw	0
  3260  08DC  341F               	retlw	31
  3261  08DD  3400               	retlw	0
  3262  08DE  341C               	retlw	28
  3263  08DF  3400               	retlw	0
  3264  08E0                     __end_of_time13:
  3265  08C0                     _time12_absaddr	set	2240
  3266                           
  3267                           	psect	_time12_text
  3268  08C0                     __p_time12_text:
  3269  08C0                     _time12:
  3270  08C0  3454               	retlw	84
  3271  08C1  3400               	retlw	0
  3272  08C2  3450               	retlw	80
  3273  08C3  3400               	retlw	0
  3274  08C4  344D               	retlw	77
  3275  08C5  3400               	retlw	0
  3276  08C6  3449               	retlw	73
  3277  08C7  3400               	retlw	0
  3278  08C8  3446               	retlw	70
  3279  08C9  3400               	retlw	0
  3280  08CA  3443               	retlw	67
  3281  08CB  3400               	retlw	0
  3282  08CC  3442               	retlw	66
  3283  08CD  3400               	retlw	0
  3284  08CE  343C               	retlw	60
  3285  08CF  3400               	retlw	0
  3286  08D0                     __end_of_time12:
  3287  08B0                     _time11_absaddr	set	2224
  3288                           
  3289                           	psect	_time11_text
  3290  08B0                     __p_time11_text:
  3291  08B0                     _time11:
  3292  08B0  3454               	retlw	84
  3293  08B1  3400               	retlw	0
  3294  08B2  3450               	retlw	80
  3295  08B3  3400               	retlw	0
  3296  08B4  344D               	retlw	77
  3297  08B5  3400               	retlw	0
  3298  08B6  3449               	retlw	73
  3299  08B7  3400               	retlw	0
  3300  08B8  3446               	retlw	70
  3301  08B9  3400               	retlw	0
  3302  08BA  3443               	retlw	67
  3303  08BB  3400               	retlw	0
  3304  08BC  3442               	retlw	66
  3305  08BD  3400               	retlw	0
  3306  08BE  343C               	retlw	60
  3307  08BF  3400               	retlw	0
  3308  08C0                     __end_of_time11:
  3309  08A0                     _time10_absaddr	set	2208
  3310                           
  3311                           	psect	_time10_text
  3312  08A0                     __p_time10_text:
  3313  08A0                     _time10:
  3314  08A0  34BA               	retlw	186
  3315  08A1  3400               	retlw	0
  3316  08A2  34B0               	retlw	176
  3317  08A3  3400               	retlw	0
  3318  08A4  34A7               	retlw	167
  3319  08A5  3400               	retlw	0
  3320  08A6  349E               	retlw	158
  3321  08A7  3400               	retlw	0
  3322  08A8  3496               	retlw	150
  3323  08A9  3400               	retlw	0
  3324  08AA  348E               	retlw	142
  3325  08AB  3400               	retlw	0
  3326  08AC  3487               	retlw	135
  3327  08AD  3400               	retlw	0
  3328  08AE  3480               	retlw	128
  3329  08AF  3400               	retlw	0
  3330  08B0                     __end_of_time10:
  3331  0890                     _time09_absaddr	set	2192
  3332                           
  3333                           	psect	_time09_text
  3334  0890                     __p_time09_text:
  3335  0890                     _time09:
  3336  0890  3449               	retlw	73
  3337  0891  3401               	retlw	1
  3338  0892  342E               	retlw	46
  3339  0893  3401               	retlw	1
  3340  0894  3415               	retlw	21
  3341  0895  3401               	retlw	1
  3342  0896  34FE               	retlw	254
  3343  0897  3400               	retlw	0
  3344  0898  34E9               	retlw	233
  3345  0899  3400               	retlw	0
  3346  089A  34DA               	retlw	218
  3347  089B  3400               	retlw	0
  3348  089C  34CF               	retlw	207
  3349  089D  3400               	retlw	0
  3350  089E  34C4               	retlw	196
  3351  089F  3400               	retlw	0
  3352  08A0                     __end_of_time09:
  3353  0880                     _time08_absaddr	set	2176
  3354                           
  3355                           	psect	_time08_text
  3356  0880                     __p_time08_text:
  3357  0880                     _time08:
  3358  0880  348F               	retlw	143
  3359  0881  3402               	retlw	2
  3360  0882  3459               	retlw	89
  3361  0883  3402               	retlw	2
  3362  0884  3428               	retlw	40
  3363  0885  3402               	retlw	2
  3364  0886  34FA               	retlw	250
  3365  0887  3401               	retlw	1
  3366  0888  34D0               	retlw	208
  3367  0889  3401               	retlw	1
  3368  088A  34AA               	retlw	170
  3369  088B  3401               	retlw	1
  3370  088C  3487               	retlw	135
  3371  088D  3401               	retlw	1
  3372  088E  3466               	retlw	102
  3373  088F  3401               	retlw	1
  3374  0890                     __end_of_time08:
  3375  0870                     _time07_absaddr	set	2160
  3376                           
  3377                           	psect	_time07_text
  3378  0870                     __p_time07_text:
  3379  0870                     _time07:
  3380  0870  3482               	retlw	130
  3381  0871  3403               	retlw	3
  3382  0872  345F               	retlw	95
  3383  0873  3403               	retlw	3
  3384  0874  343E               	retlw	62
  3385  0875  3403               	retlw	3
  3386  0876  341E               	retlw	30
  3387  0877  3403               	retlw	3
  3388  0878  34FF               	retlw	255
  3389  0879  3402               	retlw	2
  3390  087A  34E2               	retlw	226
  3391  087B  3402               	retlw	2
  3392  087C  34C6               	retlw	198
  3393  087D  3402               	retlw	2
  3394  087E  34AA               	retlw	170
  3395  087F  3402               	retlw	2
  3396  0880                     __end_of_time07:
  3397  0860                     _time06_absaddr	set	2144
  3398                           
  3399                           	psect	_time06_text
  3400  0860                     __p_time06_text:
  3401  0860                     _time06:
  3402  0860  34FF               	retlw	255
  3403  0861  3404               	retlw	4
  3404  0862  34BC               	retlw	188
  3405  0863  3404               	retlw	4
  3406  0864  347D               	retlw	125
  3407  0865  3404               	retlw	4
  3408  0866  3444               	retlw	68
  3409  0867  3404               	retlw	4
  3410  0868  341A               	retlw	26
  3411  0869  3404               	retlw	4
  3412  086A  34F2               	retlw	242
  3413  086B  3403               	retlw	3
  3414  086C  34CB               	retlw	203
  3415  086D  3403               	retlw	3
  3416  086E  34A6               	retlw	166
  3417  086F  3403               	retlw	3
  3418  0870                     __end_of_time06:
  3419  0850                     _time05_absaddr	set	2128
  3420                           
  3421                           	psect	_time05_text
  3422  0850                     __p_time05_text:
  3423  0850                     _time05:
  3424  0850  34AB               	retlw	171
  3425  0851  3407               	retlw	7
  3426  0852  3444               	retlw	68
  3427  0853  3407               	retlw	7
  3428  0854  34E3               	retlw	227
  3429  0855  3406               	retlw	6
  3430  0856  3487               	retlw	135
  3431  0857  3406               	retlw	6
  3432  0858  3430               	retlw	48
  3433  0859  3406               	retlw	6
  3434  085A  34DE               	retlw	222
  3435  085B  3405               	retlw	5
  3436  085C  348F               	retlw	143
  3437  085D  3405               	retlw	5
  3438  085E  3445               	retlw	69
  3439  085F  3405               	retlw	5
  3440  0860                     __end_of_time05:
  3441  0840                     _time04_absaddr	set	2112
  3442                           
  3443                           	psect	_time04_text
  3444  0840                     __p_time04_text:
  3445  0840                     _time04:
  3446  0840  3401               	retlw	1
  3447  0841  340E               	retlw	14
  3448  0842  34D9               	retlw	217
  3449  0843  340C               	retlw	12
  3450  0844  34C9               	retlw	201
  3451  0845  340B               	retlw	11
  3452  0846  34D0               	retlw	208
  3453  0847  340A               	retlw	10
  3454  0848  34EC               	retlw	236
  3455  0849  3409               	retlw	9
  3456  084A  341A               	retlw	26
  3457  084B  3409               	retlw	9
  3458  084C  3489               	retlw	137
  3459  084D  3408               	retlw	8
  3460  084E  3417               	retlw	23
  3461  084F  3408               	retlw	8
  3462  0850                     __end_of_time04:
  3463  0830                     _time03_absaddr	set	2096
  3464                           
  3465                           	psect	_time03_text
  3466  0830                     __p_time03_text:
  3467  0830                     _time03:
  3468  0830  3413               	retlw	19
  3469  0831  341B               	retlw	27
  3470  0832  349A               	retlw	154
  3471  0833  3419               	retlw	25
  3472  0834  347C               	retlw	124
  3473  0835  3417               	retlw	23
  3474  0836  348C               	retlw	140
  3475  0837  3415               	retlw	21
  3476  0838  34C5               	retlw	197
  3477  0839  3413               	retlw	19
  3478  083A  3423               	retlw	35
  3479  083B  3412               	retlw	18
  3480  083C  34A3               	retlw	163
  3481  083D  3410               	retlw	16
  3482  083E  3444               	retlw	68
  3483  083F  340F               	retlw	15
  3484  0840                     __end_of_time03:
  3485  0820                     _time02_absaddr	set	2080
  3486                           
  3487                           	psect	_time02_text
  3488  0820                     __p_time02_text:
  3489  0820                     _time02:
  3490  0820  3465               	retlw	101
  3491  0821  343E               	retlw	62
  3492  0822  3436               	retlw	54
  3493  0823  3438               	retlw	56
  3494  0824  34A4               	retlw	164
  3495  0825  3432               	retlw	50
  3496  0826  349F               	retlw	159
  3497  0827  342D               	retlw	45
  3498  0828  341A               	retlw	26
  3499  0829  3429               	retlw	41
  3500  082A  3407               	retlw	7
  3501  082B  3425               	retlw	37
  3502  082C  345C               	retlw	92
  3503  082D  3421               	retlw	33
  3504  082E  340D               	retlw	13
  3505  082F  341E               	retlw	30
  3506  0830                     __end_of_time02:
  3507  0810                     _time01_absaddr	set	2064
  3508                           
  3509                           	psect	_time01_text
  3510  0810                     __p_time01_text:
  3511  0810                     _time01:
  3512  0810  347A               	retlw	122
  3513  0811  3480               	retlw	128
  3514  0812  34DE               	retlw	222
  3515  0813  3475               	retlw	117
  3516  0814  3423               	retlw	35
  3517  0815  346C               	retlw	108
  3518  0816  3435               	retlw	53
  3519  0817  3463               	retlw	99
  3520  0818  3404               	retlw	4
  3521  0819  345B               	retlw	91
  3522  081A  3455               	retlw	85
  3523  081B  3455               	retlw	85
  3524  081C  34E0               	retlw	224
  3525  081D  344C               	retlw	76
  3526  081E  3442               	retlw	66
  3527  081F  3445               	retlw	69
  3528  0820                     __end_of_time01:
  3529  0800                     _time00_absaddr	set	2048
  3530                           
  3531                           	psect	_time00_text
  3532  0800                     __p_time00_text:
  3533  0800                     _time00:
  3534  0800  34FF               	retlw	255
  3535  0801  34FF               	retlw	255
  3536  0802  34DC               	retlw	220
  3537  0803  34EA               	retlw	234
  3538  0804  3477               	retlw	119
  3539  0805  34D7               	retlw	215
  3540  0806  34AD               	retlw	173
  3541  0807  34C5               	retlw	197
  3542  0808  345B               	retlw	91
  3543  0809  34B5               	retlw	181
  3544  080A  3461               	retlw	97
  3545  080B  34A6               	retlw	166
  3546  080C  34A4               	retlw	164
  3547  080D  3498               	retlw	152
  3548  080E  340A               	retlw	10
  3549  080F  348C               	retlw	140
  3550  0810                     __end_of_time00:
  3551                           
  3552                           	psect	nvBANK0
  3553  0059                     __pnvBANK0:
  3554  0059                     _TMR2_InterruptHandler:
  3555  0059                     	ds	2
  3556  000C                     _PORTAbits	set	12
  3557  001F                     _T2CONbits	set	31
  3558  001F                     _T2CON	set	31
  3559  001D                     _TMR2	set	29
  3560  001E                     _PR2	set	30
  3561  0011                     _PIR1bits	set	17
  3562  000B                     _INTCONbits	set	11
  3563  0091                     _PIE1bits	set	145
  3564  008E                     _TRISCbits	set	142
  3565  008D                     _TRISBbits	set	141
  3566  009D                     _ADCON0bits	set	157
  3567  009D                     _ADCON0	set	157
  3568  009C                     _ADRESH	set	156
  3569  009B                     _ADRESL	set	155
  3570  009F                     _ADACT	set	159
  3571  009E                     _ADCON1	set	158
  3572  0097                     _WDTCON	set	151
  3573  008E                     _TRISC	set	142
  3574  008D                     _TRISB	set	141
  3575  008C                     _TRISA	set	140
  3576  010D                     _LATBbits	set	269
  3577  010E                     _LATC	set	270
  3578  010D                     _LATB	set	269
  3579  010C                     _LATA	set	268
  3580  018C                     _ANSELA	set	396
  3581  018D                     _ANSELB	set	397
  3582  018E                     _ANSELC	set	398
  3583  0211                     _SSP1BUF	set	529
  3584  0216                     _SSP1CON2	set	534
  3585  0215                     _SSP1CON1bits	set	533
  3586  0212                     _SSP1ADD	set	530
  3587  0215                     _SSP1CON1	set	533
  3588  0214                     _SSP1STAT	set	532
  3589  020E                     _WPUC	set	526
  3590  020C                     _WPUA	set	524
  3591  020D                     _WPUB	set	525
  3592  028E                     _ODCONC	set	654
  3593  028D                     _ODCONB	set	653
  3594  028C                     _ODCONA	set	652
  3595  030E                     _SLRCONC	set	782
  3596  030D                     _SLRCONB	set	781
  3597  030C                     _SLRCONA	set	780
  3598  038E                     _INLVLC	set	910
  3599  038D                     _INLVLB	set	909
  3600  038C                     _INLVLA	set	908
  3601  0896                     _NVMCON2	set	2198
  3602  0893                     _NVMDATL	set	2195
  3603  0894                     _NVMDATH	set	2196
  3604  0895                     _NVMCON1bits	set	2197
  3605  0892                     _NVMADRH	set	2194
  3606  0891                     _NVMADRL	set	2193
  3607  0916                     _PMD5	set	2326
  3608  0915                     _PMD4	set	2325
  3609  0914                     _PMD3	set	2324
  3610  0913                     _PMD2	set	2323
  3611  0912                     _PMD1	set	2322
  3612  0911                     _PMD0	set	2321
  3613  091E                     _OSCTUNE	set	2334
  3614  091F                     _OSCFRQ	set	2335
  3615  091D                     _OSCEN	set	2333
  3616  091B                     _OSCCON3	set	2331
  3617  0919                     _OSCCON1	set	2329
  3618  0E21                     _SSP1DATPPS	set	3617
  3619  0E20                     _SSP1CLKPPS	set	3616
  3620  0EA7                     _RC7PPS	set	3751
  3621  0E9E                     _RB6PPS	set	3742
  3622                           
  3623                           	psect	cinit
  3624  001B                     start_initialization:	
  3625                           ; #config settings
  3626                           
  3627  001B                     __initialization:
  3628                           
  3629                           ; Initialize objects allocated to BANK0
  3630  001B  3184  248B  3180   	fcall	__pidataBANK0	;fetch initializer
  3631  001E  00D5               	movwf	__pdataBANK0& (0+127)
  3632  001F  3184  248C  3180   	fcall	__pidataBANK0+1	;fetch initializer
  3633  0022  00D6               	movwf	(__pdataBANK0+1)& (0+127)
  3634  0023  3184  248D  3180   	fcall	__pidataBANK0+2	;fetch initializer
  3635  0026  00D7               	movwf	(__pdataBANK0+2)& (0+127)
  3636  0027  3184  248E  3180   	fcall	__pidataBANK0+3	;fetch initializer
  3637  002A  00D8               	movwf	(__pdataBANK0+3)& (0+127)
  3638                           
  3639                           ; Clear objects allocated to BANK0
  3640  002B  3020               	movlw	low __pbssBANK0
  3641  002C  0084               	movwf	4
  3642  002D  3000               	movlw	high __pbssBANK0
  3643  002E  0085               	movwf	5
  3644  002F  3022               	movlw	34
  3645  0030  3184  247F  3180   	fcall	clear_ram0
  3646  0033                     end_of_initialization:	
  3647                           ;End of C runtime variable initialization code
  3648                           
  3649  0033                     __end_of__initialization:
  3650  0033  107E               	bcf	int$flags,0	;clear compiler interrupt flag (level 1)
  3651  0034  0020               	movlb	0
  3652  0035  3181  29F3         	ljmp	_main	;jump to C main() function
  3653                           
  3654                           	psect	bssBANK0
  3655  0020                     __pbssBANK0:
  3656  0020                     _env_level:
  3657  0020                     	ds	8
  3658  0028                     _adc_vals:
  3659  0028                     	ds	4
  3660  002C                     _release:
  3661  002C                     	ds	4
  3662  0030                     _sustain:
  3663  0030                     	ds	4
  3664  0034                     _decay:
  3665  0034                     	ds	4
  3666  0038                     _attack:
  3667  0038                     	ds	4
  3668  003C                     _gate_state:
  3669  003C                     	ds	2
  3670  003E                     _env_state:
  3671  003E                     	ds	2
  3672  0040                     _ADC_InterruptHandler:
  3673  0040                     	ds	2
  3674                           
  3675                           	psect	dataBANK0
  3676  0055                     __pdataBANK0:
  3677  0055                     _adc_chans:
  3678  0055                     	ds	4
  3679                           
  3680                           	psect	clrtext
  3681  047F                     clear_ram0:	
  3682                           ;	Called with FSR0 containing the base address, and
  3683                           ;	WREG with the size to clear
  3684                           
  3685  047F  0064               	clrwdt	;clear the watchdog before getting into this loop
  3686  0480                     clrloop0:
  3687  0480  0180               	clrf	0	;clear RAM location pointed to by FSR
  3688  0481  3101               	addfsr 0,1
  3689  0482  0B89               	decfsz	9,f	;Have we reached the end of clearing yet?
  3690  0483  2C80               	goto	clrloop0	;have we reached the end yet?
  3691  0484  3400               	retlw	0	;all done for this memory range, return
  3692                           
  3693                           	psect	cstackCOMMON
  3694  0070                     __pcstackCOMMON:
  3695  0070                     ?_PMD_Initialize:
  3696  0070                     ?_SPI1_Initialize:	
  3697                           ; 1 bytes @ 0x0
  3698                           
  3699  0070                     ?_OSCILLATOR_Initialize:	
  3700                           ; 1 bytes @ 0x0
  3701                           
  3702  0070                     ?_WDT_Initialize:	
  3703                           ; 1 bytes @ 0x0
  3704                           
  3705  0070                     ?_ADC_Initialize:	
  3706                           ; 1 bytes @ 0x0
  3707                           
  3708  0070                     ?_TMR2_Initialize:	
  3709                           ; 1 bytes @ 0x0
  3710                           
  3711  0070                     ?_TMR2_DefaultInterruptHandler:	
  3712                           ; 1 bytes @ 0x0
  3713                           
  3714  0070                     ??_TMR2_DefaultInterruptHandler:	
  3715                           ; 1 bytes @ 0x0
  3716                           
  3717  0070                     ?_Timer2ISR:	
  3718                           ; 1 bytes @ 0x0
  3719                           
  3720  0070                     ?_envelope_control:	
  3721                           ; 1 bytes @ 0x0
  3722                           
  3723  0070                     ?_PIN_MANAGER_Initialize:	
  3724                           ; 1 bytes @ 0x0
  3725                           
  3726  0070                     ?_SYSTEM_Initialize:	
  3727                           ; 1 bytes @ 0x0
  3728                           
  3729  0070                     ?_TMR2_ISR:	
  3730                           ; 1 bytes @ 0x0
  3731                           
  3732  0070                     ?_INTERRUPT_InterruptManager:	
  3733                           ; 1 bytes @ 0x0
  3734                           
  3735  0070                     ?_main:	
  3736                           ; 1 bytes @ 0x0
  3737                           
  3738  0070                     ?i1_load_dac:	
  3739                           ; 1 bytes @ 0x0
  3740                           
  3741  0070                     envelope_control@gate:	
  3742                           ; 1 bytes @ 0x0
  3743                           
  3744  0070                     i1load_dac@val:	
  3745                           ; 1 bytes @ 0x0
  3746                           
  3747                           
  3748                           ; 2 bytes @ 0x0
  3749  0070                     	ds	1
  3750  0071                     ??_envelope_control:
  3751                           
  3752                           ; 1 bytes @ 0x1
  3753  0071                     	ds	1
  3754  0072                     ??i1_load_dac:
  3755                           
  3756                           ; 1 bytes @ 0x2
  3757  0072                     	ds	2
  3758  0074                     i1load_dac@chan:
  3759                           
  3760                           ; 1 bytes @ 0x4
  3761  0074                     	ds	1
  3762  0075                     i1load_dac@temp_h:
  3763                           
  3764                           ; 1 bytes @ 0x5
  3765  0075                     	ds	1
  3766  0076                     i1load_dac@temp_l:
  3767                           
  3768                           ; 1 bytes @ 0x6
  3769  0076                     	ds	1
  3770  0077                     i1load_dac@dac_bits:
  3771                           
  3772                           ; 1 bytes @ 0x7
  3773  0077                     	ds	6
  3774  007D                     envelope_control@chan:
  3775                           
  3776                           ; 1 bytes @ 0xD
  3777  007D                     	ds	1
  3778  007E                     ??_TMR2_ISR:
  3779  007E                     ??_INTERRUPT_InterruptManager:	
  3780                           ; 1 bytes @ 0xE
  3781                           
  3782                           
  3783                           	psect	cstackBANK0
  3784  0042                     __pcstackBANK0:	
  3785                           ; 1 bytes @ 0xE
  3786                           
  3787  0042                     ??_Timer2ISR:
  3788                           
  3789                           ; 1 bytes @ 0x0
  3790  0042                     	ds	5
  3791  0047                     ??_PMD_Initialize:
  3792  0047                     ??_SPI1_Initialize:	
  3793                           ; 1 bytes @ 0x5
  3794                           
  3795  0047                     ??_OSCILLATOR_Initialize:	
  3796                           ; 1 bytes @ 0x5
  3797                           
  3798  0047                     ??_WDT_Initialize:	
  3799                           ; 1 bytes @ 0x5
  3800                           
  3801  0047                     ??_ADC_Initialize:	
  3802                           ; 1 bytes @ 0x5
  3803                           
  3804  0047                     ?_TMR2_SetInterruptHandler:	
  3805                           ; 1 bytes @ 0x5
  3806                           
  3807  0047                     ?_load_dac:	
  3808                           ; 1 bytes @ 0x5
  3809                           
  3810  0047                     ??_PIN_MANAGER_Initialize:	
  3811                           ; 1 bytes @ 0x5
  3812                           
  3813  0047                     ?_ADC_GetConversion:	
  3814                           ; 1 bytes @ 0x5
  3815                           
  3816  0047                     ?_FLASH_ReadWord:	
  3817                           ; 2 bytes @ 0x5
  3818                           
  3819  0047                     FLASH_ReadWord@flashAddr:	
  3820                           ; 2 bytes @ 0x5
  3821                           
  3822  0047                     TMR2_SetInterruptHandler@InterruptHandler:	
  3823                           ; 2 bytes @ 0x5
  3824                           
  3825  0047                     load_dac@val:	
  3826                           ; 2 bytes @ 0x5
  3827                           
  3828                           
  3829                           ; 2 bytes @ 0x5
  3830  0047                     	ds	2
  3831  0049                     ??_TMR2_Initialize:
  3832  0049                     ??_TMR2_SetInterruptHandler:	
  3833                           ; 1 bytes @ 0x7
  3834                           
  3835  0049                     ??_load_dac:	
  3836                           ; 1 bytes @ 0x7
  3837                           
  3838  0049                     ??_SYSTEM_Initialize:	
  3839                           ; 1 bytes @ 0x7
  3840                           
  3841  0049                     ??_ADC_GetConversion:	
  3842                           ; 1 bytes @ 0x7
  3843                           
  3844  0049                     ??_FLASH_ReadWord:	
  3845                           ; 1 bytes @ 0x7
  3846                           
  3847  0049                     FLASH_ReadWord@GIEBitValue:	
  3848                           ; 1 bytes @ 0x7
  3849                           
  3850                           
  3851                           ; 1 bytes @ 0x7
  3852  0049                     	ds	1
  3853  004A                     ?_time_lookup:
  3854                           
  3855                           ; 2 bytes @ 0x8
  3856  004A                     	ds	1
  3857  004B                     ADC_GetConversion@channel:
  3858  004B                     load_dac@chan:	
  3859                           ; 1 bytes @ 0x9
  3860                           
  3861                           
  3862                           ; 1 bytes @ 0x9
  3863  004B                     	ds	1
  3864  004C                     ??_time_lookup:
  3865  004C                     load_dac@temp_h:	
  3866                           ; 1 bytes @ 0xA
  3867                           
  3868                           
  3869                           ; 1 bytes @ 0xA
  3870  004C                     	ds	1
  3871  004D                     load_dac@temp_l:
  3872                           
  3873                           ; 1 bytes @ 0xB
  3874  004D                     	ds	1
  3875  004E                     load_dac@dac_bits:
  3876                           
  3877                           ; 1 bytes @ 0xC
  3878  004E                     	ds	1
  3879  004F                     time_lookup@temp:
  3880                           
  3881                           ; 1 bytes @ 0xD
  3882  004F                     	ds	1
  3883  0050                     time_lookup@val:
  3884                           
  3885                           ; 1 bytes @ 0xE
  3886  0050                     	ds	1
  3887  0051                     ??_main:
  3888                           
  3889                           ; 1 bytes @ 0xF
  3890  0051                     	ds	3
  3891  0054                     main@chan_sel:
  3892                           
  3893                           ; 1 bytes @ 0x12
  3894  0054                     	ds	1
  3895                           
  3896                           	psect	maintext
  3897  01F3                     __pmaintext:	
  3898 ;;
  3899 ;;Main: autosize = 0, tempsize = 3, incstack = 0, save=0
  3900 ;;
  3901 ;; *************** function _main *****************
  3902 ;; Defined at:
  3903 ;;		line 95 in file "main.c"
  3904 ;; Parameters:    Size  Location     Type
  3905 ;;		None
  3906 ;; Auto vars:     Size  Location     Type
  3907 ;;  chan_sel        1   18[BANK0 ] unsigned char 
  3908 ;; Return value:  Size  Location     Type
  3909 ;;                  1    wreg      void 
  3910 ;; Registers used:
  3911 ;;		wreg, fsr0l, fsr0h, fsr1l, fsr1h, status,2, status,0, pclath, cstack
  3912 ;; Tracked objects:
  3913 ;;		On entry : B1F/0
  3914 ;;		On exit  : 0/0
  3915 ;;		Unchanged: 0/0
  3916 ;; Data sizes:     COMMON   BANK0   BANK1   BANK2   BANK3   BANK4   BANK5   BANK6
  3917 ;;      Params:         0       0       0       0       0       0       0       0
  3918 ;;      Locals:         0       1       0       0       0       0       0       0
  3919 ;;      Temps:          0       3       0       0       0       0       0       0
  3920 ;;      Totals:         0       4       0       0       0       0       0       0
  3921 ;;Total ram usage:        4 bytes
  3922 ;; Hardware stack levels required when called:    7
  3923 ;; This function calls:
  3924 ;;		_ADC_GetConversion
  3925 ;;		_SYSTEM_Initialize
  3926 ;;		_TMR2_SetInterruptHandler
  3927 ;;		_load_dac
  3928 ;;		_time_lookup
  3929 ;; This function is called by:
  3930 ;;		Startup code after reset
  3931 ;; This function uses a non-reentrant model
  3932 ;;
  3933                           
  3934                           
  3935                           ;psect for function _main
  3936  01F3                     _main:
  3937  01F3                     l1872:	
  3938                           ;incstack = 0
  3939                           ; Regs used in _main: [wreg-fsr1h+status,2+status,0+pclath+cstack]
  3940                           
  3941                           
  3942                           ;main.c: 98:     SYSTEM_Initialize();
  3943  01F3  3184  242A  3181   	fcall	_SYSTEM_Initialize
  3944  01F6                     l1874:
  3945                           
  3946                           ;main.c: 100:     unsigned char chan_sel = 0;
  3947  01F6  0020               	movlb	0	; select bank0
  3948  01F7  01D4               	clrf	main@chan_sel
  3949  01F8                     l1876:
  3950                           
  3951                           ;main.c: 102:     LATBbits.LATB7 = 0x01;
  3952  01F8  0022               	movlb	2	; select bank2
  3953  01F9  178D               	bsf	13,7	;volatile
  3954  01FA                     l1878:
  3955                           
  3956                           ;main.c: 105:  load_dac(0, 0);
  3957  01FA  3000               	movlw	0
  3958  01FB  0020               	movlb	0	; select bank0
  3959  01FC  00C7               	movwf	load_dac@val
  3960  01FD  00C8               	movwf	load_dac@val+1
  3961  01FE  3000               	movlw	0
  3962  01FF  3183  2326  3181   	fcall	_load_dac
  3963  0202                     l1880:
  3964                           
  3965                           ;main.c: 106:  load_dac(1, 0);
  3966  0202  3000               	movlw	0
  3967  0203  0020               	movlb	0	; select bank0
  3968  0204  00C7               	movwf	load_dac@val
  3969  0205  00C8               	movwf	load_dac@val+1
  3970  0206  3001               	movlw	1
  3971  0207  3183  2326  3181   	fcall	_load_dac
  3972  020A                     l1882:
  3973                           
  3974                           ;main.c: 109:     ADCON0bits.ADON = 1;
  3975  020A  0021               	movlb	1	; select bank1
  3976  020B  141D               	bsf	29,0	;volatile
  3977  020C                     l1884:
  3978                           
  3979                           ;main.c: 110:  ADCON0bits.ADGO = 1;
  3980  020C  149D               	bsf	29,1	;volatile
  3981  020D                     l1886:
  3982                           
  3983                           ;main.c: 114:  env_state[0] = 0;
  3984  020D  0020               	movlb	0	; select bank0
  3985  020E  01BE               	clrf	_env_state
  3986  020F                     l1888:
  3987                           
  3988                           ;main.c: 115:  env_state[1] = 0;
  3989  020F  01BF               	clrf	_env_state+1
  3990  0210                     l1890:
  3991                           
  3992                           ;main.c: 116:  gate_state[0] = 0;
  3993  0210  01BC               	clrf	_gate_state
  3994  0211                     l1892:
  3995                           
  3996                           ;main.c: 117:  gate_state[1] = 0;
  3997  0211  01BD               	clrf	_gate_state+1
  3998  0212                     l1894:
  3999                           
  4000                           ;main.c: 118:  env_level[0] = 0;
  4001  0212  3000               	movlw	0
  4002  0213  00A3               	movwf	_env_level+3
  4003  0214  3000               	movlw	0
  4004  0215  00A2               	movwf	_env_level+2
  4005  0216  3000               	movlw	0
  4006  0217  00A1               	movwf	_env_level+1
  4007  0218  3000               	movlw	0
  4008  0219  00A0               	movwf	_env_level
  4009  021A                     l1896:
  4010                           
  4011                           ;main.c: 119:  env_level[1] = 0;
  4012  021A  3000               	movlw	0
  4013  021B  00A7               	movwf	_env_level+7
  4014  021C  3000               	movlw	0
  4015  021D  00A6               	movwf	_env_level+6
  4016  021E  3000               	movlw	0
  4017  021F  00A5               	movwf	_env_level+5
  4018  0220  3000               	movlw	0
  4019  0221  00A4               	movwf	_env_level+4
  4020  0222                     l1898:
  4021                           
  4022                           ;main.c: 120:  attack[0] = 100;
  4023  0222  3064               	movlw	100
  4024  0223  00B8               	movwf	_attack
  4025  0224  3000               	movlw	0
  4026  0225  00B9               	movwf	_attack+1
  4027  0226                     l1900:
  4028                           
  4029                           ;main.c: 121:  attack[1] = 100;
  4030  0226  3064               	movlw	100
  4031  0227  00BA               	movwf	_attack+2
  4032  0228  3000               	movlw	0
  4033  0229  00BB               	movwf	_attack+3
  4034  022A                     l1902:
  4035                           
  4036                           ;main.c: 122:  decay[0] = 100;
  4037  022A  3064               	movlw	100
  4038  022B  00B4               	movwf	_decay
  4039  022C  3000               	movlw	0
  4040  022D  00B5               	movwf	_decay+1
  4041  022E                     l1904:
  4042                           
  4043                           ;main.c: 123:  decay[1] = 100;
  4044  022E  3064               	movlw	100
  4045  022F  00B6               	movwf	_decay+2
  4046  0230  3000               	movlw	0
  4047  0231  00B7               	movwf	_decay+3
  4048  0232                     l1906:
  4049                           
  4050                           ;main.c: 124:  sustain[0] = 4000;
  4051  0232  30A0               	movlw	160
  4052  0233  00B0               	movwf	_sustain
  4053  0234  300F               	movlw	15
  4054  0235  00B1               	movwf	_sustain+1
  4055  0236                     l1908:
  4056                           
  4057                           ;main.c: 125:  sustain[1] = 4000;
  4058  0236  30A0               	movlw	160
  4059  0237  00B2               	movwf	_sustain+2
  4060  0238  300F               	movlw	15
  4061  0239  00B3               	movwf	_sustain+3
  4062  023A                     l1910:
  4063                           
  4064                           ;main.c: 126:  release[0] = 1000;
  4065  023A  30E8               	movlw	232
  4066  023B  00AC               	movwf	_release
  4067  023C  3003               	movlw	3
  4068  023D  00AD               	movwf	_release+1
  4069  023E                     l1912:
  4070                           
  4071                           ;main.c: 127:  release[1] = 1000;
  4072  023E  30E8               	movlw	232
  4073  023F  00AE               	movwf	_release+2
  4074  0240  3003               	movlw	3
  4075  0241  00AF               	movwf	_release+3
  4076  0242                     l1914:
  4077                           
  4078                           ;main.c: 135:     (INTCONbits.GIE = 1);
  4079  0242  178B               	bsf	11,7	;volatile
  4080  0243                     l1916:
  4081                           
  4082                           ;main.c: 138:     (INTCONbits.PEIE = 1);
  4083  0243  170B               	bsf	11,6	;volatile
  4084  0244                     l1918:
  4085                           
  4086                           ;main.c: 145:     PIE1bits.TMR2IE = 1;
  4087  0244  0021               	movlb	1	; select bank1
  4088  0245  1491               	bsf	17,1	;volatile
  4089  0246                     l1920:
  4090                           
  4091                           ;main.c: 146:     TMR2_SetInterruptHandler (Timer2ISR);
  4092  0246  30AD               	movlw	low _Timer2ISR
  4093  0247  0020               	movlb	0	; select bank0
  4094  0248  00C7               	movwf	TMR2_SetInterruptHandler@InterruptHandler
  4095  0249  3003               	movlw	high _Timer2ISR
  4096  024A  00C8               	movwf	TMR2_SetInterruptHandler@InterruptHandler+1
  4097  024B  3184  2485  3181   	fcall	_TMR2_SetInterruptHandler
  4098  024E                     l1922:
  4099                           
  4100                           ;main.c: 172:     (INTCONbits.GIE = 0);
  4101  024E  138B               	bcf	11,7	;volatile
  4102  024F                     l1924:
  4103                           
  4104                           ;main.c: 173:     adc_vals[chan_sel] = ADC_GetConversion(ADCON0bits.CHS);
  4105  024F  0021               	movlb	1	; select bank1
  4106  0250  0C1D               	rrf	29,w	;volatile
  4107  0251  0C89               	rrf	9,f
  4108  0252  393F               	andlw	63
  4109  0253  3183  23D0  3181   	fcall	_ADC_GetConversion
  4110  0256  0020               	movlb	0	; select bank0
  4111  0257  0847               	movf	?_ADC_GetConversion,w
  4112  0258  00D1               	movwf	??_main
  4113  0259  0854               	movf	main@chan_sel,w
  4114  025A  3E28               	addlw	(low (_adc_vals| 0))& (0+255)
  4115  025B  0086               	movwf	6
  4116  025C  0187               	clrf	7
  4117  025D  0851               	movf	??_main,w
  4118  025E  0081               	movwf	1
  4119  025F                     l1926:
  4120                           
  4121                           ;main.c: 176:     chan_sel = (chan_sel + 1) & 0x07;
  4122  025F  0854               	movf	main@chan_sel,w
  4123  0260  3E01               	addlw	1
  4124  0261  3907               	andlw	7
  4125  0262  00D1               	movwf	??_main
  4126  0263  0851               	movf	??_main,w
  4127  0264  00D4               	movwf	main@chan_sel
  4128  0265                     l1928:
  4129                           
  4130                           ;main.c: 177:     ADCON0bits.CHS = adc_chans[chan_sel];
  4131  0265  0854               	movf	main@chan_sel,w
  4132  0266  3E55               	addlw	(low (_adc_chans| 0))& (0+255)
  4133  0267  0086               	movwf	6
  4134  0268  0187               	clrf	7
  4135  0269  0801               	movf	1,w
  4136  026A  00D1               	movwf	??_main
  4137  026B  0DD1               	rlf	??_main,f
  4138  026C  0DD1               	rlf	??_main,f
  4139  026D  0021               	movlb	1	; select bank1
  4140  026E  081D               	movf	29,w	;volatile
  4141  026F  0020               	movlb	0	; select bank0
  4142  0270  0651               	xorwf	??_main,w
  4143  0271  3903               	andlw	-253
  4144  0272  0651               	xorwf	??_main,w
  4145  0273  0021               	movlb	1	; select bank1
  4146  0274  009D               	movwf	29	;volatile
  4147  0275                     l1930:
  4148                           
  4149                           ;main.c: 179:     (INTCONbits.GIE = 1);
  4150  0275  178B               	bsf	11,7	;volatile
  4151  0276                     l1932:
  4152                           
  4153                           ;main.c: 183:     (INTCONbits.GIE = 0);
  4154  0276  138B               	bcf	11,7	;volatile
  4155                           
  4156                           ;main.c: 185:   switch(chan_sel) {
  4157  0277  2ACA               	goto	l1952
  4158  0278                     l1934:
  4159                           
  4160                           ;main.c: 187:     attack[0] = time_lookup(adc_vals[0] >> 1);
  4161  0278  3628               	lsrf	_adc_vals,w
  4162  0279  3183  2356  3181   	fcall	_time_lookup
  4163  027C  0020               	movlb	0	; select bank0
  4164  027D  084B               	movf	?_time_lookup+1,w
  4165  027E  00B9               	movwf	_attack+1
  4166  027F  084A               	movf	?_time_lookup,w
  4167  0280  00B8               	movwf	_attack
  4168                           
  4169                           ;main.c: 188:     break;
  4170  0281  2AED               	goto	l423
  4171  0282                     l1936:
  4172                           
  4173                           ;main.c: 190:     decay[0] = time_lookup(adc_vals[1] >> 1);
  4174  0282  3629               	lsrf	_adc_vals+1,w
  4175  0283  3183  2356  3181   	fcall	_time_lookup
  4176  0286  0020               	movlb	0	; select bank0
  4177  0287  084B               	movf	?_time_lookup+1,w
  4178  0288  00B5               	movwf	_decay+1
  4179  0289  084A               	movf	?_time_lookup,w
  4180  028A  00B4               	movwf	_decay
  4181                           
  4182                           ;main.c: 191:     break;
  4183  028B  2AED               	goto	l423
  4184  028C                     l1938:
  4185                           
  4186                           ;main.c: 193:     sustain[0] = adc_vals[2] << 8;
  4187  028C  082A               	movf	_adc_vals+2,w
  4188  028D  00D1               	movwf	??_main
  4189  028E  01D2               	clrf	??_main+1
  4190  028F  0851               	movf	??_main,w
  4191  0290  00D2               	movwf	??_main+1
  4192  0291  01D1               	clrf	??_main
  4193  0292  0851               	movf	??_main,w
  4194  0293  00B0               	movwf	_sustain
  4195  0294  0852               	movf	??_main+1,w
  4196  0295  00B1               	movwf	_sustain+1
  4197                           
  4198                           ;main.c: 194:     break;
  4199  0296  2AED               	goto	l423
  4200  0297                     l1940:
  4201                           
  4202                           ;main.c: 196:     release[0] = time_lookup(adc_vals[3] >> 1);
  4203  0297  362B               	lsrf	_adc_vals+3,w
  4204  0298  3183  2356  3181   	fcall	_time_lookup
  4205  029B  0020               	movlb	0	; select bank0
  4206  029C  084B               	movf	?_time_lookup+1,w
  4207  029D  00AD               	movwf	_release+1
  4208  029E  084A               	movf	?_time_lookup,w
  4209  029F  00AC               	movwf	_release
  4210                           
  4211                           ;main.c: 197:     break;
  4212  02A0  2AED               	goto	l423
  4213  02A1                     l1942:
  4214                           
  4215                           ;main.c: 199:     attack[1] = time_lookup(adc_vals[0] >> 1);
  4216  02A1  3628               	lsrf	_adc_vals,w
  4217  02A2  3183  2356  3181   	fcall	_time_lookup
  4218  02A5  0020               	movlb	0	; select bank0
  4219  02A6  084B               	movf	?_time_lookup+1,w
  4220  02A7  00BB               	movwf	_attack+3
  4221  02A8  084A               	movf	?_time_lookup,w
  4222  02A9  00BA               	movwf	_attack+2
  4223                           
  4224                           ;main.c: 200:     break;
  4225  02AA  2AED               	goto	l423
  4226  02AB                     l1944:
  4227                           
  4228                           ;main.c: 202:     decay[1] = time_lookup(adc_vals[1] >> 1);
  4229  02AB  3629               	lsrf	_adc_vals+1,w
  4230  02AC  3183  2356  3181   	fcall	_time_lookup
  4231  02AF  0020               	movlb	0	; select bank0
  4232  02B0  084B               	movf	?_time_lookup+1,w
  4233  02B1  00B7               	movwf	_decay+3
  4234  02B2  084A               	movf	?_time_lookup,w
  4235  02B3  00B6               	movwf	_decay+2
  4236                           
  4237                           ;main.c: 203:     break;
  4238  02B4  2AED               	goto	l423
  4239  02B5                     l1946:
  4240                           
  4241                           ;main.c: 205:     sustain[1] = adc_vals[2] << 8;
  4242  02B5  082A               	movf	_adc_vals+2,w
  4243  02B6  00D1               	movwf	??_main
  4244  02B7  01D2               	clrf	??_main+1
  4245  02B8  0851               	movf	??_main,w
  4246  02B9  00D2               	movwf	??_main+1
  4247  02BA  01D1               	clrf	??_main
  4248  02BB  0851               	movf	??_main,w
  4249  02BC  00B2               	movwf	_sustain+2
  4250  02BD  0852               	movf	??_main+1,w
  4251  02BE  00B3               	movwf	_sustain+3
  4252                           
  4253                           ;main.c: 206:     break;
  4254  02BF  2AED               	goto	l423
  4255  02C0                     l1948:
  4256                           
  4257                           ;main.c: 208:     release[1] = time_lookup(adc_vals[3] >> 1);
  4258  02C0  362B               	lsrf	_adc_vals+3,w
  4259  02C1  3183  2356  3181   	fcall	_time_lookup
  4260  02C4  0020               	movlb	0	; select bank0
  4261  02C5  084B               	movf	?_time_lookup+1,w
  4262  02C6  00AF               	movwf	_release+3
  4263  02C7  084A               	movf	?_time_lookup,w
  4264  02C8  00AE               	movwf	_release+2
  4265                           
  4266                           ;main.c: 209:     break;
  4267  02C9  2AED               	goto	l423
  4268  02CA                     l1952:
  4269  02CA  0020               	movlb	0	; select bank0
  4270  02CB  0854               	movf	main@chan_sel,w
  4271  02CC  00D1               	movwf	??_main
  4272  02CD  01D2               	clrf	??_main+1
  4273                           
  4274                           ; Switch on 2 bytes has been partitioned into a top level switch of size 1, and 1 sub-sw
      +                          itches
  4275                           ; Switch size 1, requested type "simple"
  4276                           ; Number of cases is 1, Range of values is 0 to 0
  4277                           ; switch strategies available:
  4278                           ; Name         Instructions Cycles
  4279                           ; simple_byte            4     3 (average)
  4280                           ; direct_byte            8     6 (fixed)
  4281                           ; jumptable            260     6 (fixed)
  4282                           ;	Chosen strategy is simple_byte
  4283  02CE  0852               	movf	??_main+1,w
  4284  02CF  3A00               	xorlw	0	; case 0
  4285  02D0  1903               	skipnz
  4286  02D1  2AD3               	goto	l1984
  4287  02D2  2AED               	goto	l423
  4288  02D3                     l1984:
  4289                           
  4290                           ; Switch size 1, requested type "simple"
  4291                           ; Number of cases is 8, Range of values is 0 to 7
  4292                           ; switch strategies available:
  4293                           ; Name         Instructions Cycles
  4294                           ; direct_byte           22     6 (fixed)
  4295                           ; simple_byte           25    13 (average)
  4296                           ; jumptable            260     6 (fixed)
  4297                           ;	Chosen strategy is simple_byte
  4298  02D3  0851               	movf	??_main,w
  4299  02D4  3A00               	xorlw	0	; case 0
  4300  02D5  1903               	skipnz
  4301  02D6  2A78               	goto	l1934
  4302  02D7  3A01               	xorlw	1	; case 1
  4303  02D8  1903               	skipnz
  4304  02D9  2A82               	goto	l1936
  4305  02DA  3A03               	xorlw	3	; case 2
  4306  02DB  1903               	skipnz
  4307  02DC  2A8C               	goto	l1938
  4308  02DD  3A01               	xorlw	1	; case 3
  4309  02DE  1903               	skipnz
  4310  02DF  2A97               	goto	l1940
  4311  02E0  3A07               	xorlw	7	; case 4
  4312  02E1  1903               	skipnz
  4313  02E2  2AA1               	goto	l1942
  4314  02E3  3A01               	xorlw	1	; case 5
  4315  02E4  1903               	skipnz
  4316  02E5  2AAB               	goto	l1944
  4317  02E6  3A03               	xorlw	3	; case 6
  4318  02E7  1903               	skipnz
  4319  02E8  2AB5               	goto	l1946
  4320  02E9  3A01               	xorlw	1	; case 7
  4321  02EA  1903               	skipnz
  4322  02EB  2AC0               	goto	l1948
  4323  02EC  2AED               	goto	l423
  4324  02ED                     l423:
  4325                           
  4326                           ;main.c: 213:         (INTCONbits.GIE = 1);
  4327  02ED  178B               	bsf	11,7	;volatile
  4328  02EE  2A4E               	goto	l1922
  4329  02EF  3180  2819         	ljmp	start
  4330  02F1                     __end_of_main:
  4331                           
  4332                           	psect	text1
  4333  0356                     __ptext1:	
  4334 ;; *************** function _time_lookup *****************
  4335 ;; Defined at:
  4336 ;;		line 363 in file "main.c"
  4337 ;; Parameters:    Size  Location     Type
  4338 ;;  val             1    wreg     unsigned char 
  4339 ;; Auto vars:     Size  Location     Type
  4340 ;;  val             1   14[BANK0 ] unsigned char 
  4341 ;;  temp            1   13[BANK0 ] unsigned char 
  4342 ;; Return value:  Size  Location     Type
  4343 ;;                  2    8[BANK0 ] unsigned int 
  4344 ;; Registers used:
  4345 ;;		wreg, status,2, status,0, pclath, cstack
  4346 ;; Tracked objects:
  4347 ;;		On entry : 0/0
  4348 ;;		On exit  : 0/0
  4349 ;;		Unchanged: 0/0
  4350 ;; Data sizes:     COMMON   BANK0   BANK1   BANK2   BANK3   BANK4   BANK5   BANK6
  4351 ;;      Params:         0       2       0       0       0       0       0       0
  4352 ;;      Locals:         0       2       0       0       0       0       0       0
  4353 ;;      Temps:          0       3       0       0       0       0       0       0
  4354 ;;      Totals:         0       7       0       0       0       0       0       0
  4355 ;;Total ram usage:        7 bytes
  4356 ;; Hardware stack levels used:    1
  4357 ;; Hardware stack levels required when called:    5
  4358 ;; This function calls:
  4359 ;;		_FLASH_ReadWord
  4360 ;; This function is called by:
  4361 ;;		_main
  4362 ;; This function uses a non-reentrant model
  4363 ;;
  4364                           
  4365                           
  4366                           ;psect for function _time_lookup
  4367  0356                     _time_lookup:
  4368                           
  4369                           ;incstack = 0
  4370                           ; Regs used in _time_lookup: [wreg+status,2+status,0+pclath+cstack]
  4371                           ;time_lookup@val stored from wreg
  4372  0356  0020               	movlb	0	; select bank0
  4373  0357  00D0               	movwf	time_lookup@val
  4374  0358                     l1842:
  4375                           
  4376                           ;main.c: 364:  unsigned char temp;;main.c: 365:  temp = FLASH_ReadWord(0x0800 + (val << 
      +                          1));
  4377  0358  0850               	movf	time_lookup@val,w
  4378  0359  00CC               	movwf	??_time_lookup
  4379  035A  01CD               	clrf	??_time_lookup+1
  4380  035B  35CC               	lslf	??_time_lookup,f
  4381  035C  0DCD               	rlf	??_time_lookup+1,f
  4382  035D  084C               	movf	??_time_lookup,w
  4383  035E  3E00               	addlw	0
  4384  035F  00C7               	movwf	FLASH_ReadWord@flashAddr
  4385  0360  3008               	movlw	8
  4386  0361  3D4D               	addwfc	??_time_lookup+1,w
  4387  0362  00C8               	movwf	FLASH_ReadWord@flashAddr+1
  4388  0363  3183  23F2  3183   	fcall	_FLASH_ReadWord
  4389  0366  0020               	movlb	0	; select bank0
  4390  0367  0847               	movf	?_FLASH_ReadWord,w
  4391  0368  00CE               	movwf	??_time_lookup+2
  4392  0369  084E               	movf	??_time_lookup+2,w
  4393  036A  00CF               	movwf	time_lookup@temp
  4394                           
  4395                           ;main.c: 366:     temp |= FLASH_ReadWord(0x0801 + (val << 1)) << 8;
  4396  036B  0850               	movf	time_lookup@val,w
  4397  036C  00CC               	movwf	??_time_lookup
  4398  036D  01CD               	clrf	??_time_lookup+1
  4399  036E  35CC               	lslf	??_time_lookup,f
  4400  036F  0DCD               	rlf	??_time_lookup+1,f
  4401  0370  084C               	movf	??_time_lookup,w
  4402  0371  3E01               	addlw	1
  4403  0372  00C7               	movwf	FLASH_ReadWord@flashAddr
  4404  0373  3008               	movlw	8
  4405  0374  3D4D               	addwfc	??_time_lookup+1,w
  4406  0375  00C8               	movwf	FLASH_ReadWord@flashAddr+1
  4407  0376  3183  23F2  3183   	fcall	_FLASH_ReadWord
  4408  0379                     l1844:
  4409                           
  4410                           ;main.c: 367:  return temp;
  4411  0379  0020               	movlb	0	; select bank0
  4412  037A  084F               	movf	time_lookup@temp,w
  4413  037B  00CC               	movwf	??_time_lookup
  4414  037C  01CD               	clrf	??_time_lookup+1
  4415  037D  084C               	movf	??_time_lookup,w
  4416  037E  00CA               	movwf	?_time_lookup
  4417  037F  084D               	movf	??_time_lookup+1,w
  4418  0380  00CB               	movwf	?_time_lookup+1
  4419  0381                     l462:
  4420  0381  0008               	return
  4421  0382                     __end_of_time_lookup:
  4422                           
  4423                           	psect	text2
  4424  03F2                     __ptext2:	
  4425 ;; *************** function _FLASH_ReadWord *****************
  4426 ;; Defined at:
  4427 ;;		line 58 in file "mcc_generated_files/memory.c"
  4428 ;; Parameters:    Size  Location     Type
  4429 ;;  flashAddr       2    5[BANK0 ] unsigned short 
  4430 ;; Auto vars:     Size  Location     Type
  4431 ;;  GIEBitValue     1    7[BANK0 ] unsigned char 
  4432 ;; Return value:  Size  Location     Type
  4433 ;;                  2    5[BANK0 ] unsigned short 
  4434 ;; Registers used:
  4435 ;;		wreg, status,2, status,0
  4436 ;; Tracked objects:
  4437 ;;		On entry : 0/0
  4438 ;;		On exit  : 0/0
  4439 ;;		Unchanged: 0/0
  4440 ;; Data sizes:     COMMON   BANK0   BANK1   BANK2   BANK3   BANK4   BANK5   BANK6
  4441 ;;      Params:         0       2       0       0       0       0       0       0
  4442 ;;      Locals:         0       1       0       0       0       0       0       0
  4443 ;;      Temps:          0       0       0       0       0       0       0       0
  4444 ;;      Totals:         0       3       0       0       0       0       0       0
  4445 ;;Total ram usage:        3 bytes
  4446 ;; Hardware stack levels used:    1
  4447 ;; Hardware stack levels required when called:    4
  4448 ;; This function calls:
  4449 ;;		Nothing
  4450 ;; This function is called by:
  4451 ;;		_time_lookup
  4452 ;;		_FLASH_WriteWord
  4453 ;; This function uses a non-reentrant model
  4454 ;;
  4455                           
  4456                           
  4457                           ;psect for function _FLASH_ReadWord
  4458  03F2                     _FLASH_ReadWord:
  4459  03F2                     l1774:	
  4460                           ;incstack = 0
  4461                           ; Regs used in _FLASH_ReadWord: [wreg+status,2+status,0]
  4462                           
  4463                           
  4464                           ;mcc_generated_files/memory.c: 58: uint16_t FLASH_ReadWord(uint16_t flashAddr);mcc_gener
      +                          ated_files/memory.c: 59: {;mcc_generated_files/memory.c: 60:     uint8_t GIEBitValue = I
      +                          NTCONbits.GIE;
  4465  03F2  3000               	movlw	0
  4466  03F3  1B8B               	btfsc	11,7	;volatile
  4467  03F4  3001               	movlw	1
  4468  03F5  0020               	movlb	0	; select bank0
  4469  03F6  00C9               	movwf	FLASH_ReadWord@GIEBitValue
  4470  03F7                     l1776:
  4471                           
  4472                           ;mcc_generated_files/memory.c: 62:     INTCONbits.GIE = 0;
  4473  03F7  138B               	bcf	11,7	;volatile
  4474  03F8                     l1778:
  4475                           
  4476                           ;mcc_generated_files/memory.c: 63:     NVMADRL = (flashAddr & 0x00FF);
  4477  03F8  0847               	movf	FLASH_ReadWord@flashAddr,w
  4478  03F9  0031               	movlb	17	; select bank17
  4479  03FA  0091               	movwf	17	;volatile
  4480  03FB                     l1780:
  4481                           
  4482                           ;mcc_generated_files/memory.c: 64:     NVMADRH = ((flashAddr & 0xFF00) >> 8);
  4483  03FB  0020               	movlb	0	; select bank0
  4484  03FC  0848               	movf	FLASH_ReadWord@flashAddr+1,w
  4485  03FD  0031               	movlb	17	; select bank17
  4486  03FE  0092               	movwf	18	;volatile
  4487  03FF                     l1782:
  4488                           
  4489                           ;mcc_generated_files/memory.c: 66:     NVMCON1bits.NVMREGS = 0;
  4490  03FF  1315               	bcf	21,6	;volsfr
  4491  0400                     l1784:
  4492                           
  4493                           ;mcc_generated_files/memory.c: 67:     NVMCON1bits.RD = 1;
  4494  0400  1415               	bsf	21,0	;volsfr
  4495  0401                     l1786:
  4496                           
  4497                           ;mcc_generated_files/memory.c: 68:     __nop();
  4498  0401  0000               	nop
  4499  0402                     l1788:
  4500                           
  4501                           ;mcc_generated_files/memory.c: 69:     __nop();
  4502  0402  0000               	nop
  4503  0403                     l1790:
  4504                           
  4505                           ;mcc_generated_files/memory.c: 70:     INTCONbits.GIE = GIEBitValue;
  4506  0403  0020               	movlb	0	; select bank0
  4507  0404  0C49               	rrf	FLASH_ReadWord@GIEBitValue,w
  4508  0405  1C03               	skipc
  4509  0406  138B               	bcf	11,7	;volatile
  4510  0407  1803               	skipnc
  4511  0408  178B               	bsf	11,7	;volatile
  4512  0409                     l1792:
  4513                           
  4514                           ;mcc_generated_files/memory.c: 72:     return ((uint16_t)((NVMDATH << 8) | NVMDATL));
  4515  0409  0031               	movlb	17	; select bank17
  4516  040A  0814               	movf	20,w	;volatile
  4517  040B  0020               	movlb	0	; select bank0
  4518  040C  00C8               	movwf	?_FLASH_ReadWord+1
  4519  040D  0031               	movlb	17	; select bank17
  4520  040E  0813               	movf	19,w	;volatile
  4521  040F  0020               	movlb	0	; select bank0
  4522  0410  00C7               	movwf	?_FLASH_ReadWord
  4523  0411                     l169:
  4524  0411  0008               	return
  4525  0412                     __end_of_FLASH_ReadWord:
  4526                           
  4527                           	psect	text3
  4528  0326                     __ptext3:	
  4529 ;; *************** function _load_dac *****************
  4530 ;; Defined at:
  4531 ;;		line 241 in file "main.c"
  4532 ;; Parameters:    Size  Location     Type
  4533 ;;  chan            1    wreg     unsigned char 
  4534 ;;  val             2    5[BANK0 ] unsigned int 
  4535 ;; Auto vars:     Size  Location     Type
  4536 ;;  chan            1    9[BANK0 ] unsigned char 
  4537 ;;  dac_bits        1   12[BANK0 ] unsigned char 
  4538 ;;  temp_l          1   11[BANK0 ] unsigned char 
  4539 ;;  temp_h          1   10[BANK0 ] unsigned char 
  4540 ;;  read_buf        1    0        unsigned char 
  4541 ;; Return value:  Size  Location     Type
  4542 ;;                  1    wreg      void 
  4543 ;; Registers used:
  4544 ;;		wreg, status,2, status,0
  4545 ;; Tracked objects:
  4546 ;;		On entry : 0/0
  4547 ;;		On exit  : 0/0
  4548 ;;		Unchanged: 0/0
  4549 ;; Data sizes:     COMMON   BANK0   BANK1   BANK2   BANK3   BANK4   BANK5   BANK6
  4550 ;;      Params:         0       2       0       0       0       0       0       0
  4551 ;;      Locals:         0       5       0       0       0       0       0       0
  4552 ;;      Temps:          0       1       0       0       0       0       0       0
  4553 ;;      Totals:         0       8       0       0       0       0       0       0
  4554 ;;Total ram usage:        8 bytes
  4555 ;; Hardware stack levels used:    1
  4556 ;; Hardware stack levels required when called:    4
  4557 ;; This function calls:
  4558 ;;		Nothing
  4559 ;; This function is called by:
  4560 ;;		_main
  4561 ;; This function uses a non-reentrant model
  4562 ;;
  4563                           
  4564                           
  4565                           ;psect for function _load_dac
  4566  0326                     _load_dac:
  4567                           
  4568                           ;incstack = 0
  4569                           ; Regs used in _load_dac: [wreg+status,2+status,0]
  4570                           ;load_dac@chan stored from wreg
  4571  0326  0020               	movlb	0	; select bank0
  4572  0327  00CB               	movwf	load_dac@chan
  4573  0328                     l1820:
  4574                           
  4575                           ;main.c: 244:     unsigned char dac_bits;;main.c: 245:     unsigned char temp_h;;main.c:
      +                           246:     unsigned char temp_l;;main.c: 247:     unsigned char read_buf;;main.c: 249:   
      +                            temp_h = val >> 8;
  4576  0328  0848               	movf	load_dac@val+1,w
  4577  0329  00C9               	movwf	??_load_dac
  4578  032A  0849               	movf	??_load_dac,w
  4579  032B  00CC               	movwf	load_dac@temp_h
  4580  032C                     l1822:
  4581                           
  4582                           ;main.c: 250:     temp_l = val;
  4583  032C  0847               	movf	load_dac@val,w
  4584  032D  00C9               	movwf	??_load_dac
  4585  032E  0849               	movf	??_load_dac,w
  4586  032F  00CD               	movwf	load_dac@temp_l
  4587  0330                     l1824:
  4588                           
  4589                           ;main.c: 252:     TRISBbits.TRISB6 = 0;
  4590  0330  0021               	movlb	1	; select bank1
  4591  0331  130D               	bcf	13,6	;volatile
  4592  0332                     l1826:
  4593                           
  4594                           ;main.c: 253:     TRISCbits.TRISC7 = 0;
  4595  0332  138E               	bcf	14,7	;volatile
  4596  0333                     l1828:
  4597                           
  4598                           ;main.c: 257:     if(chan) dac_bits = 0b10010000;
  4599  0333  0020               	movlb	0	; select bank0
  4600  0334  084B               	movf	load_dac@chan,w
  4601  0335  1903               	btfsc	3,2
  4602  0336  2B38               	goto	u701
  4603  0337  2B39               	goto	u700
  4604  0338                     u701:
  4605  0338  2B3E               	goto	l1832
  4606  0339                     u700:
  4607  0339                     l1830:
  4608  0339  3090               	movlw	144
  4609  033A  00C9               	movwf	??_load_dac
  4610  033B  0849               	movf	??_load_dac,w
  4611  033C  00CE               	movwf	load_dac@dac_bits
  4612  033D  2B42               	goto	l440
  4613  033E                     l1832:
  4614  033E  3010               	movlw	16
  4615  033F  00C9               	movwf	??_load_dac
  4616  0340  0849               	movf	??_load_dac,w
  4617  0341  00CE               	movwf	load_dac@dac_bits
  4618  0342                     l440:
  4619  0342  0024               	movlb	4	; select bank4
  4620  0343  0811               	movf	17,w	;volatile
  4621                           
  4622                           ;main.c: 263:     SSP1CON1 = 0x20;
  4623  0344  3020               	movlw	32
  4624  0345  0095               	movwf	21	;volatile
  4625                           
  4626                           ;main.c: 264:     SSP1STAT = 0x40;
  4627  0346  3040               	movlw	64
  4628  0347  0094               	movwf	20	;volatile
  4629  0348                     l1834:
  4630                           
  4631                           ;main.c: 265:     LATBbits.LATB7 = 0;
  4632  0348  0022               	movlb	2	; select bank2
  4633  0349  138D               	bcf	13,7	;volatile
  4634  034A                     l1836:
  4635                           
  4636                           ;main.c: 268:     SSP1BUF = dac_bits | temp_h;
  4637  034A  0020               	movlb	0	; select bank0
  4638  034B  084E               	movf	load_dac@dac_bits,w
  4639  034C  044C               	iorwf	load_dac@temp_h,w
  4640  034D  0024               	movlb	4	; select bank4
  4641  034E  0091               	movwf	17	;volatile
  4642  034F                     l1838:
  4643                           
  4644                           ;main.c: 274:     SSP1BUF = temp_l;
  4645  034F  0020               	movlb	0	; select bank0
  4646  0350  084D               	movf	load_dac@temp_l,w
  4647  0351  0024               	movlb	4	; select bank4
  4648  0352  0091               	movwf	17	;volatile
  4649  0353                     l1840:
  4650                           
  4651                           ;main.c: 278:     LATBbits.LATB7 = 1;
  4652  0353  0022               	movlb	2	; select bank2
  4653  0354  178D               	bsf	13,7	;volatile
  4654  0355                     l441:
  4655  0355  0008               	return
  4656  0356                     __end_of_load_dac:
  4657                           
  4658                           	psect	text4
  4659  042A                     __ptext4:	
  4660 ;; *************** function _SYSTEM_Initialize *****************
  4661 ;; Defined at:
  4662 ;;		line 50 in file "mcc_generated_files/mcc.c"
  4663 ;; Parameters:    Size  Location     Type
  4664 ;;		None
  4665 ;; Auto vars:     Size  Location     Type
  4666 ;;		None
  4667 ;; Return value:  Size  Location     Type
  4668 ;;                  1    wreg      void 
  4669 ;; Registers used:
  4670 ;;		wreg, status,2, status,0, pclath, cstack
  4671 ;; Tracked objects:
  4672 ;;		On entry : 0/0
  4673 ;;		On exit  : 0/0
  4674 ;;		Unchanged: 0/0
  4675 ;; Data sizes:     COMMON   BANK0   BANK1   BANK2   BANK3   BANK4   BANK5   BANK6
  4676 ;;      Params:         0       0       0       0       0       0       0       0
  4677 ;;      Locals:         0       0       0       0       0       0       0       0
  4678 ;;      Temps:          0       0       0       0       0       0       0       0
  4679 ;;      Totals:         0       0       0       0       0       0       0       0
  4680 ;;Total ram usage:        0 bytes
  4681 ;; Hardware stack levels used:    1
  4682 ;; Hardware stack levels required when called:    6
  4683 ;; This function calls:
  4684 ;;		_ADC_Initialize
  4685 ;;		_OSCILLATOR_Initialize
  4686 ;;		_PIN_MANAGER_Initialize
  4687 ;;		_PMD_Initialize
  4688 ;;		_SPI1_Initialize
  4689 ;;		_TMR2_Initialize
  4690 ;;		_WDT_Initialize
  4691 ;; This function is called by:
  4692 ;;		_main
  4693 ;; This function uses a non-reentrant model
  4694 ;;
  4695                           
  4696                           
  4697                           ;psect for function _SYSTEM_Initialize
  4698  042A                     _SYSTEM_Initialize:
  4699  042A                     l1800:	
  4700                           ;incstack = 0
  4701                           ; Regs used in _SYSTEM_Initialize: [wreg+status,2+status,0+pclath+cstack]
  4702                           
  4703                           
  4704                           ;mcc_generated_files/mcc.c: 53:     PMD_Initialize();
  4705  042A  3184  2461  3184   	fcall	_PMD_Initialize
  4706                           
  4707                           ;mcc_generated_files/mcc.c: 54:     SPI1_Initialize();
  4708  042D  3184  2412  3184   	fcall	_SPI1_Initialize
  4709                           
  4710                           ;mcc_generated_files/mcc.c: 55:     PIN_MANAGER_Initialize();
  4711  0430  3182  22F1  3184   	fcall	_PIN_MANAGER_Initialize
  4712                           
  4713                           ;mcc_generated_files/mcc.c: 56:     OSCILLATOR_Initialize();
  4714  0433  3184  246D  3184   	fcall	_OSCILLATOR_Initialize
  4715                           
  4716                           ;mcc_generated_files/mcc.c: 57:     WDT_Initialize();
  4717  0436  3184  248F  3184   	fcall	_WDT_Initialize
  4718                           
  4719                           ;mcc_generated_files/mcc.c: 58:     ADC_Initialize();
  4720  0439  3184  2476  3184   	fcall	_ADC_Initialize
  4721                           
  4722                           ;mcc_generated_files/mcc.c: 59:     TMR2_Initialize();
  4723  043C  3184  2440  3184   	fcall	_TMR2_Initialize
  4724  043F                     l97:
  4725  043F  0008               	return
  4726  0440                     __end_of_SYSTEM_Initialize:
  4727                           
  4728                           	psect	text5
  4729  048F                     __ptext5:	
  4730 ;; *************** function _WDT_Initialize *****************
  4731 ;; Defined at:
  4732 ;;		line 76 in file "mcc_generated_files/mcc.c"
  4733 ;; Parameters:    Size  Location     Type
  4734 ;;		None
  4735 ;; Auto vars:     Size  Location     Type
  4736 ;;		None
  4737 ;; Return value:  Size  Location     Type
  4738 ;;                  1    wreg      void 
  4739 ;; Registers used:
  4740 ;;		wreg
  4741 ;; Tracked objects:
  4742 ;;		On entry : 0/0
  4743 ;;		On exit  : 0/0
  4744 ;;		Unchanged: 0/0
  4745 ;; Data sizes:     COMMON   BANK0   BANK1   BANK2   BANK3   BANK4   BANK5   BANK6
  4746 ;;      Params:         0       0       0       0       0       0       0       0
  4747 ;;      Locals:         0       0       0       0       0       0       0       0
  4748 ;;      Temps:          0       0       0       0       0       0       0       0
  4749 ;;      Totals:         0       0       0       0       0       0       0       0
  4750 ;;Total ram usage:        0 bytes
  4751 ;; Hardware stack levels used:    1
  4752 ;; Hardware stack levels required when called:    4
  4753 ;; This function calls:
  4754 ;;		Nothing
  4755 ;; This function is called by:
  4756 ;;		_SYSTEM_Initialize
  4757 ;; This function uses a non-reentrant model
  4758 ;;
  4759                           
  4760                           
  4761                           ;psect for function _WDT_Initialize
  4762  048F                     _WDT_Initialize:
  4763  048F                     l1750:	
  4764                           ;incstack = 0
  4765                           ; Regs used in _WDT_Initialize: [wreg]
  4766                           
  4767                           
  4768                           ;mcc_generated_files/mcc.c: 79:     WDTCON = 0x04;
  4769  048F  3004               	movlw	4
  4770  0490  0021               	movlb	1	; select bank1
  4771  0491  0097               	movwf	23	;volatile
  4772  0492                     l103:
  4773  0492  0008               	return
  4774  0493                     __end_of_WDT_Initialize:
  4775                           
  4776                           	psect	text6
  4777  0440                     __ptext6:	
  4778 ;; *************** function _TMR2_Initialize *****************
  4779 ;; Defined at:
  4780 ;;		line 64 in file "mcc_generated_files/tmr2.c"
  4781 ;; Parameters:    Size  Location     Type
  4782 ;;		None
  4783 ;; Auto vars:     Size  Location     Type
  4784 ;;		None
  4785 ;; Return value:  Size  Location     Type
  4786 ;;                  1    wreg      void 
  4787 ;; Registers used:
  4788 ;;		wreg, status,2, status,0, pclath, cstack
  4789 ;; Tracked objects:
  4790 ;;		On entry : 0/0
  4791 ;;		On exit  : 0/0
  4792 ;;		Unchanged: 0/0
  4793 ;; Data sizes:     COMMON   BANK0   BANK1   BANK2   BANK3   BANK4   BANK5   BANK6
  4794 ;;      Params:         0       0       0       0       0       0       0       0
  4795 ;;      Locals:         0       0       0       0       0       0       0       0
  4796 ;;      Temps:          0       0       0       0       0       0       0       0
  4797 ;;      Totals:         0       0       0       0       0       0       0       0
  4798 ;;Total ram usage:        0 bytes
  4799 ;; Hardware stack levels used:    1
  4800 ;; Hardware stack levels required when called:    5
  4801 ;; This function calls:
  4802 ;;		_TMR2_SetInterruptHandler
  4803 ;; This function is called by:
  4804 ;;		_SYSTEM_Initialize
  4805 ;; This function uses a non-reentrant model
  4806 ;;
  4807                           
  4808                           
  4809                           ;psect for function _TMR2_Initialize
  4810  0440                     _TMR2_Initialize:
  4811  0440                     l1762:	
  4812                           ;incstack = 0
  4813                           ; Regs used in _TMR2_Initialize: [wreg+status,2+status,0+pclath+cstack]
  4814                           
  4815                           
  4816                           ;mcc_generated_files/tmr2.c: 69:     PR2 = 0x1F;
  4817  0440  301F               	movlw	31
  4818  0441  0020               	movlb	0	; select bank0
  4819  0442  009E               	movwf	30	;volatile
  4820  0443                     l1764:
  4821                           
  4822                           ;mcc_generated_files/tmr2.c: 72:     TMR2 = 0x00;
  4823  0443  019D               	clrf	29	;volatile
  4824  0444                     l1766:
  4825                           
  4826                           ;mcc_generated_files/tmr2.c: 75:     PIR1bits.TMR2IF = 0;
  4827  0444  1091               	bcf	17,1	;volatile
  4828  0445                     l1768:
  4829                           
  4830                           ;mcc_generated_files/tmr2.c: 78:     PIE1bits.TMR2IE = 1;
  4831  0445  0021               	movlb	1	; select bank1
  4832  0446  1491               	bsf	17,1	;volatile
  4833  0447                     l1770:
  4834                           
  4835                           ;mcc_generated_files/tmr2.c: 81:     TMR2_SetInterruptHandler(TMR2_DefaultInterruptHandl
      +                          er);
  4836  0447  3093               	movlw	low _TMR2_DefaultInterruptHandler
  4837  0448  0020               	movlb	0	; select bank0
  4838  0449  00C7               	movwf	TMR2_SetInterruptHandler@InterruptHandler
  4839  044A  3004               	movlw	high _TMR2_DefaultInterruptHandler
  4840  044B  00C8               	movwf	TMR2_SetInterruptHandler@InterruptHandler+1
  4841  044C  3184  2485  3184   	fcall	_TMR2_SetInterruptHandler
  4842  044F                     l1772:
  4843                           
  4844                           ;mcc_generated_files/tmr2.c: 84:     T2CON = 0x3C;
  4845  044F  303C               	movlw	60
  4846  0450  0020               	movlb	0	; select bank0
  4847  0451  009F               	movwf	31	;volatile
  4848  0452                     l285:
  4849  0452  0008               	return
  4850  0453                     __end_of_TMR2_Initialize:
  4851                           
  4852                           	psect	text7
  4853  0485                     __ptext7:	
  4854 ;; *************** function _TMR2_SetInterruptHandler *****************
  4855 ;; Defined at:
  4856 ;;		line 132 in file "mcc_generated_files/tmr2.c"
  4857 ;; Parameters:    Size  Location     Type
  4858 ;;  InterruptHan    2    5[BANK0 ] PTR FTN()void 
  4859 ;;		 -> Timer2ISR(1), TMR2_DefaultInterruptHandler(1), 
  4860 ;; Auto vars:     Size  Location     Type
  4861 ;;		None
  4862 ;; Return value:  Size  Location     Type
  4863 ;;                  1    wreg      void 
  4864 ;; Registers used:
  4865 ;;		wreg
  4866 ;; Tracked objects:
  4867 ;;		On entry : 0/0
  4868 ;;		On exit  : 0/0
  4869 ;;		Unchanged: 0/0
  4870 ;; Data sizes:     COMMON   BANK0   BANK1   BANK2   BANK3   BANK4   BANK5   BANK6
  4871 ;;      Params:         0       2       0       0       0       0       0       0
  4872 ;;      Locals:         0       0       0       0       0       0       0       0
  4873 ;;      Temps:          0       0       0       0       0       0       0       0
  4874 ;;      Totals:         0       2       0       0       0       0       0       0
  4875 ;;Total ram usage:        2 bytes
  4876 ;; Hardware stack levels used:    1
  4877 ;; Hardware stack levels required when called:    4
  4878 ;; This function calls:
  4879 ;;		Nothing
  4880 ;; This function is called by:
  4881 ;;		_TMR2_Initialize
  4882 ;;		_main
  4883 ;; This function uses a non-reentrant model
  4884 ;;
  4885                           
  4886                           
  4887                           ;psect for function _TMR2_SetInterruptHandler
  4888  0485                     _TMR2_SetInterruptHandler:
  4889  0485                     l1630:	
  4890                           ;incstack = 0
  4891                           ; Regs used in _TMR2_SetInterruptHandler: [wreg]
  4892                           
  4893                           
  4894                           ;mcc_generated_files/tmr2.c: 133:     TMR2_InterruptHandler = InterruptHandler;
  4895  0485  0020               	movlb	0	; select bank0
  4896  0486  0848               	movf	TMR2_SetInterruptHandler@InterruptHandler+1,w
  4897  0487  00DA               	movwf	_TMR2_InterruptHandler+1
  4898  0488  0847               	movf	TMR2_SetInterruptHandler@InterruptHandler,w
  4899  0489  00D9               	movwf	_TMR2_InterruptHandler
  4900  048A                     l307:
  4901  048A  0008               	return
  4902  048B                     __end_of_TMR2_SetInterruptHandler:
  4903                           
  4904                           	psect	text8
  4905  0412                     __ptext8:	
  4906 ;; *************** function _SPI1_Initialize *****************
  4907 ;; Defined at:
  4908 ;;		line 62 in file "mcc_generated_files/spi1.c"
  4909 ;; Parameters:    Size  Location     Type
  4910 ;;		None
  4911 ;; Auto vars:     Size  Location     Type
  4912 ;;		None
  4913 ;; Return value:  Size  Location     Type
  4914 ;;                  1    wreg      void 
  4915 ;; Registers used:
  4916 ;;		wreg
  4917 ;; Tracked objects:
  4918 ;;		On entry : 0/0
  4919 ;;		On exit  : 0/0
  4920 ;;		Unchanged: 0/0
  4921 ;; Data sizes:     COMMON   BANK0   BANK1   BANK2   BANK3   BANK4   BANK5   BANK6
  4922 ;;      Params:         0       0       0       0       0       0       0       0
  4923 ;;      Locals:         0       0       0       0       0       0       0       0
  4924 ;;      Temps:          0       0       0       0       0       0       0       0
  4925 ;;      Totals:         0       0       0       0       0       0       0       0
  4926 ;;Total ram usage:        0 bytes
  4927 ;; Hardware stack levels used:    1
  4928 ;; Hardware stack levels required when called:    4
  4929 ;; This function calls:
  4930 ;;		Nothing
  4931 ;; This function is called by:
  4932 ;;		_SYSTEM_Initialize
  4933 ;; This function uses a non-reentrant model
  4934 ;;
  4935                           
  4936                           
  4937                           ;psect for function _SPI1_Initialize
  4938  0412                     _SPI1_Initialize:
  4939  0412                     l1732:	
  4940                           ;incstack = 0
  4941                           ; Regs used in _SPI1_Initialize: [wreg]
  4942                           
  4943                           
  4944                           ;mcc_generated_files/spi1.c: 65:     SSP1CLKPPS = 14;
  4945  0412  300E               	movlw	14
  4946  0413  003C               	movlb	28	; select bank28
  4947  0414  00A0               	movwf	32	;volatile
  4948                           
  4949                           ;mcc_generated_files/spi1.c: 66:     SSP1DATPPS = 21;
  4950  0415  3015               	movlw	21
  4951  0416  00A1               	movwf	33	;volatile
  4952                           
  4953                           ;mcc_generated_files/spi1.c: 67:     RB6PPS = 24;
  4954  0417  3018               	movlw	24
  4955  0418  003D               	movlb	29	; select bank29
  4956  0419  009E               	movwf	30	;volatile
  4957                           
  4958                           ;mcc_generated_files/spi1.c: 68:     RC7PPS = 25;
  4959  041A  3019               	movlw	25
  4960  041B  00A7               	movwf	39	;volatile
  4961                           
  4962                           ;mcc_generated_files/spi1.c: 70:     SSP1STAT = 0x40;
  4963  041C  3040               	movlw	64
  4964  041D  0024               	movlb	4	; select bank4
  4965  041E  0094               	movwf	20	;volatile
  4966                           
  4967                           ;mcc_generated_files/spi1.c: 71:     SSP1CON1 = 0x20;
  4968  041F  3020               	movlw	32
  4969  0420  0095               	movwf	21	;volatile
  4970                           
  4971                           ;mcc_generated_files/spi1.c: 72:     SSP1ADD = 0x01;
  4972  0421  3001               	movlw	1
  4973  0422  0092               	movwf	18	;volatile
  4974  0423                     l1734:
  4975                           
  4976                           ;mcc_generated_files/spi1.c: 73:     TRISBbits.TRISB6 = 0;
  4977  0423  0021               	movlb	1	; select bank1
  4978  0424  130D               	bcf	13,6	;volatile
  4979  0425                     l1736:
  4980                           
  4981                           ;mcc_generated_files/spi1.c: 74:     TRISBbits.TRISB7 = 0;
  4982  0425  138D               	bcf	13,7	;volatile
  4983  0426                     l1738:
  4984                           
  4985                           ;mcc_generated_files/spi1.c: 75:     TRISCbits.TRISC7 = 0;
  4986  0426  138E               	bcf	14,7	;volatile
  4987  0427                     l1740:
  4988                           
  4989                           ;mcc_generated_files/spi1.c: 77:     SSP1CON1bits.SSPEN = 1;
  4990  0427  0024               	movlb	4	; select bank4
  4991  0428  1695               	bsf	21,5	;volatile
  4992  0429                     l224:
  4993  0429  0008               	return
  4994  042A                     __end_of_SPI1_Initialize:
  4995                           
  4996                           	psect	text9
  4997  0461                     __ptext9:	
  4998 ;; *************** function _PMD_Initialize *****************
  4999 ;; Defined at:
  5000 ;;		line 82 in file "mcc_generated_files/mcc.c"
  5001 ;; Parameters:    Size  Location     Type
  5002 ;;		None
  5003 ;; Auto vars:     Size  Location     Type
  5004 ;;		None
  5005 ;; Return value:  Size  Location     Type
  5006 ;;                  1    wreg      void 
  5007 ;; Registers used:
  5008 ;;		wreg, status,2
  5009 ;; Tracked objects:
  5010 ;;		On entry : 0/0
  5011 ;;		On exit  : 0/0
  5012 ;;		Unchanged: 0/0
  5013 ;; Data sizes:     COMMON   BANK0   BANK1   BANK2   BANK3   BANK4   BANK5   BANK6
  5014 ;;      Params:         0       0       0       0       0       0       0       0
  5015 ;;      Locals:         0       0       0       0       0       0       0       0
  5016 ;;      Temps:          0       0       0       0       0       0       0       0
  5017 ;;      Totals:         0       0       0       0       0       0       0       0
  5018 ;;Total ram usage:        0 bytes
  5019 ;; Hardware stack levels used:    1
  5020 ;; Hardware stack levels required when called:    4
  5021 ;; This function calls:
  5022 ;;		Nothing
  5023 ;; This function is called by:
  5024 ;;		_SYSTEM_Initialize
  5025 ;; This function uses a non-reentrant model
  5026 ;;
  5027                           
  5028                           
  5029                           ;psect for function _PMD_Initialize
  5030  0461                     _PMD_Initialize:
  5031  0461                     l1726:	
  5032                           ;incstack = 0
  5033                           ; Regs used in _PMD_Initialize: [wreg+status,2]
  5034                           
  5035                           
  5036                           ;mcc_generated_files/mcc.c: 85:     PMD0 = 0x43;
  5037  0461  3043               	movlw	67
  5038  0462  0032               	movlb	18	; select bank18
  5039  0463  0091               	movwf	17	;volatile
  5040                           
  5041                           ;mcc_generated_files/mcc.c: 87:     PMD1 = 0x7A;
  5042  0464  307A               	movlw	122
  5043  0465  0092               	movwf	18	;volatile
  5044                           
  5045                           ;mcc_generated_files/mcc.c: 89:     PMD2 = 0x46;
  5046  0466  3046               	movlw	70
  5047  0467  0093               	movwf	19	;volatile
  5048  0468                     l1728:
  5049                           
  5050                           ;mcc_generated_files/mcc.c: 91:     PMD3 = 0x00;
  5051  0468  0194               	clrf	20	;volatile
  5052  0469                     l1730:
  5053                           
  5054                           ;mcc_generated_files/mcc.c: 93:     PMD4 = 0x20;
  5055  0469  3020               	movlw	32
  5056  046A  0095               	movwf	21	;volatile
  5057                           
  5058                           ;mcc_generated_files/mcc.c: 95:     PMD5 = 0x00;
  5059  046B  0196               	clrf	22	;volatile
  5060  046C                     l106:
  5061  046C  0008               	return
  5062  046D                     __end_of_PMD_Initialize:
  5063                           
  5064                           	psect	text10
  5065  02F1                     __ptext10:	
  5066 ;; *************** function _PIN_MANAGER_Initialize *****************
  5067 ;; Defined at:
  5068 ;;		line 55 in file "mcc_generated_files/pin_manager.c"
  5069 ;; Parameters:    Size  Location     Type
  5070 ;;		None
  5071 ;; Auto vars:     Size  Location     Type
  5072 ;;		None
  5073 ;; Return value:  Size  Location     Type
  5074 ;;                  1    wreg      void 
  5075 ;; Registers used:
  5076 ;;		wreg, status,2
  5077 ;; Tracked objects:
  5078 ;;		On entry : 0/0
  5079 ;;		On exit  : 0/0
  5080 ;;		Unchanged: 0/0
  5081 ;; Data sizes:     COMMON   BANK0   BANK1   BANK2   BANK3   BANK4   BANK5   BANK6
  5082 ;;      Params:         0       0       0       0       0       0       0       0
  5083 ;;      Locals:         0       0       0       0       0       0       0       0
  5084 ;;      Temps:          0       0       0       0       0       0       0       0
  5085 ;;      Totals:         0       0       0       0       0       0       0       0
  5086 ;;Total ram usage:        0 bytes
  5087 ;; Hardware stack levels used:    1
  5088 ;; Hardware stack levels required when called:    4
  5089 ;; This function calls:
  5090 ;;		Nothing
  5091 ;; This function is called by:
  5092 ;;		_SYSTEM_Initialize
  5093 ;; This function uses a non-reentrant model
  5094 ;;
  5095                           
  5096                           
  5097                           ;psect for function _PIN_MANAGER_Initialize
  5098  02F1                     _PIN_MANAGER_Initialize:
  5099  02F1                     l1704:	
  5100                           ;incstack = 0
  5101                           ; Regs used in _PIN_MANAGER_Initialize: [wreg+status,2]
  5102                           
  5103                           
  5104                           ;mcc_generated_files/pin_manager.c: 60:     LATA = 0x00;
  5105  02F1  0022               	movlb	2	; select bank2
  5106  02F2  018C               	clrf	12	;volatile
  5107                           
  5108                           ;mcc_generated_files/pin_manager.c: 61:     LATB = 0x00;
  5109  02F3  018D               	clrf	13	;volatile
  5110                           
  5111                           ;mcc_generated_files/pin_manager.c: 62:     LATC = 0x00;
  5112  02F4  018E               	clrf	14	;volatile
  5113  02F5                     l1706:
  5114                           
  5115                           ;mcc_generated_files/pin_manager.c: 67:     TRISA = 0x34;
  5116  02F5  3034               	movlw	52
  5117  02F6  0021               	movlb	1	; select bank1
  5118  02F7  008C               	movwf	12	;volatile
  5119  02F8                     l1708:
  5120                           
  5121                           ;mcc_generated_files/pin_manager.c: 68:     TRISB = 0x30;
  5122  02F8  3030               	movlw	48
  5123  02F9  008D               	movwf	13	;volatile
  5124  02FA                     l1710:
  5125                           
  5126                           ;mcc_generated_files/pin_manager.c: 69:     TRISC = 0x20;
  5127  02FA  3020               	movlw	32
  5128  02FB  008E               	movwf	14	;volatile
  5129  02FC                     l1712:
  5130                           
  5131                           ;mcc_generated_files/pin_manager.c: 74:     ANSELC = 0x00;
  5132  02FC  0023               	movlb	3	; select bank3
  5133  02FD  018E               	clrf	14	;volatile
  5134                           
  5135                           ;mcc_generated_files/pin_manager.c: 75:     ANSELB = 0x30;
  5136  02FE  3030               	movlw	48
  5137  02FF  008D               	movwf	13	;volatile
  5138                           
  5139                           ;mcc_generated_files/pin_manager.c: 76:     ANSELA = 0x14;
  5140  0300  3014               	movlw	20
  5141  0301  008C               	movwf	12	;volatile
  5142  0302                     l1714:
  5143                           
  5144                           ;mcc_generated_files/pin_manager.c: 81:     WPUB = 0x00;
  5145  0302  0024               	movlb	4	; select bank4
  5146  0303  018D               	clrf	13	;volatile
  5147  0304                     l1716:
  5148                           
  5149                           ;mcc_generated_files/pin_manager.c: 82:     WPUA = 0x08;
  5150  0304  3008               	movlw	8
  5151  0305  008C               	movwf	12	;volatile
  5152  0306                     l1718:
  5153                           
  5154                           ;mcc_generated_files/pin_manager.c: 83:     WPUC = 0x20;
  5155  0306  3020               	movlw	32
  5156  0307  008E               	movwf	14	;volatile
  5157  0308                     l1720:
  5158                           
  5159                           ;mcc_generated_files/pin_manager.c: 88:     ODCONA = 0x00;
  5160  0308  0025               	movlb	5	; select bank5
  5161  0309  018C               	clrf	12	;volatile
  5162  030A                     l1722:
  5163                           
  5164                           ;mcc_generated_files/pin_manager.c: 89:     ODCONB = 0x00;
  5165  030A  018D               	clrf	13	;volatile
  5166  030B                     l1724:
  5167                           
  5168                           ;mcc_generated_files/pin_manager.c: 90:     ODCONC = 0x00;
  5169  030B  018E               	clrf	14	;volatile
  5170                           
  5171                           ;mcc_generated_files/pin_manager.c: 95:     SLRCONA = 0x37;
  5172  030C  3037               	movlw	55
  5173  030D  0026               	movlb	6	; select bank6
  5174  030E  008C               	movwf	12	;volatile
  5175                           
  5176                           ;mcc_generated_files/pin_manager.c: 96:     SLRCONB = 0xB0;
  5177  030F  30B0               	movlw	176
  5178  0310  008D               	movwf	13	;volatile
  5179                           
  5180                           ;mcc_generated_files/pin_manager.c: 97:     SLRCONC = 0xFF;
  5181  0311  30FF               	movlw	255
  5182  0312  008E               	movwf	14	;volatile
  5183                           
  5184                           ;mcc_generated_files/pin_manager.c: 102:     INLVLA = 0x3F;
  5185  0313  303F               	movlw	63
  5186  0314  0027               	movlb	7	; select bank7
  5187  0315  008C               	movwf	12	;volatile
  5188                           
  5189                           ;mcc_generated_files/pin_manager.c: 103:     INLVLB = 0xF0;
  5190  0316  30F0               	movlw	240
  5191  0317  008D               	movwf	13	;volatile
  5192                           
  5193                           ;mcc_generated_files/pin_manager.c: 104:     INLVLC = 0xFF;
  5194  0318  30FF               	movlw	255
  5195  0319  008E               	movwf	14	;volatile
  5196                           
  5197                           ;mcc_generated_files/pin_manager.c: 113:     SSP1CLKPPS = 0x0E;
  5198  031A  300E               	movlw	14
  5199  031B  003C               	movlb	28	; select bank28
  5200  031C  00A0               	movwf	32	;volatile
  5201                           
  5202                           ;mcc_generated_files/pin_manager.c: 114:     RB6PPS = 0x18;
  5203  031D  3018               	movlw	24
  5204  031E  003D               	movlb	29	; select bank29
  5205  031F  009E               	movwf	30	;volatile
  5206                           
  5207                           ;mcc_generated_files/pin_manager.c: 115:     RC7PPS = 0x19;
  5208  0320  3019               	movlw	25
  5209  0321  00A7               	movwf	39	;volatile
  5210                           
  5211                           ;mcc_generated_files/pin_manager.c: 116:     SSP1DATPPS = 0x15;
  5212  0322  3015               	movlw	21
  5213  0323  003C               	movlb	28	; select bank28
  5214  0324  00A1               	movwf	33	;volatile
  5215  0325                     l53:
  5216  0325  0008               	return
  5217  0326                     __end_of_PIN_MANAGER_Initialize:
  5218                           
  5219                           	psect	text11
  5220  046D                     __ptext11:	
  5221 ;; *************** function _OSCILLATOR_Initialize *****************
  5222 ;; Defined at:
  5223 ;;		line 62 in file "mcc_generated_files/mcc.c"
  5224 ;; Parameters:    Size  Location     Type
  5225 ;;		None
  5226 ;; Auto vars:     Size  Location     Type
  5227 ;;		None
  5228 ;; Return value:  Size  Location     Type
  5229 ;;                  1    wreg      void 
  5230 ;; Registers used:
  5231 ;;		wreg, status,2
  5232 ;; Tracked objects:
  5233 ;;		On entry : 0/0
  5234 ;;		On exit  : 0/0
  5235 ;;		Unchanged: 0/0
  5236 ;; Data sizes:     COMMON   BANK0   BANK1   BANK2   BANK3   BANK4   BANK5   BANK6
  5237 ;;      Params:         0       0       0       0       0       0       0       0
  5238 ;;      Locals:         0       0       0       0       0       0       0       0
  5239 ;;      Temps:          0       0       0       0       0       0       0       0
  5240 ;;      Totals:         0       0       0       0       0       0       0       0
  5241 ;;Total ram usage:        0 bytes
  5242 ;; Hardware stack levels used:    1
  5243 ;; Hardware stack levels required when called:    4
  5244 ;; This function calls:
  5245 ;;		Nothing
  5246 ;; This function is called by:
  5247 ;;		_SYSTEM_Initialize
  5248 ;; This function uses a non-reentrant model
  5249 ;;
  5250                           
  5251                           
  5252                           ;psect for function _OSCILLATOR_Initialize
  5253  046D                     _OSCILLATOR_Initialize:
  5254  046D                     l1742:	
  5255                           ;incstack = 0
  5256                           ; Regs used in _OSCILLATOR_Initialize: [wreg+status,2]
  5257                           
  5258                           
  5259                           ;mcc_generated_files/mcc.c: 65:     OSCCON1 = 0x60;
  5260  046D  3060               	movlw	96
  5261  046E  0032               	movlb	18	; select bank18
  5262  046F  0099               	movwf	25	;volatile
  5263  0470                     l1744:
  5264                           
  5265                           ;mcc_generated_files/mcc.c: 67:     OSCCON3 = 0x00;
  5266  0470  019B               	clrf	27	;volatile
  5267  0471                     l1746:
  5268                           
  5269                           ;mcc_generated_files/mcc.c: 69:     OSCEN = 0x00;
  5270  0471  019D               	clrf	29	;volatile
  5271                           
  5272                           ;mcc_generated_files/mcc.c: 71:     OSCFRQ = 0x04;
  5273  0472  3004               	movlw	4
  5274  0473  009F               	movwf	31	;volatile
  5275  0474                     l1748:
  5276                           
  5277                           ;mcc_generated_files/mcc.c: 73:     OSCTUNE = 0x00;
  5278  0474  019E               	clrf	30	;volatile
  5279  0475                     l100:
  5280  0475  0008               	return
  5281  0476                     __end_of_OSCILLATOR_Initialize:
  5282                           
  5283                           	psect	text12
  5284  0476                     __ptext12:	
  5285 ;; *************** function _ADC_Initialize *****************
  5286 ;; Defined at:
  5287 ;;		line 67 in file "mcc_generated_files/adc.c"
  5288 ;; Parameters:    Size  Location     Type
  5289 ;;		None
  5290 ;; Auto vars:     Size  Location     Type
  5291 ;;		None
  5292 ;; Return value:  Size  Location     Type
  5293 ;;                  1    wreg      void 
  5294 ;; Registers used:
  5295 ;;		wreg, status,2
  5296 ;; Tracked objects:
  5297 ;;		On entry : 0/0
  5298 ;;		On exit  : 0/0
  5299 ;;		Unchanged: 0/0
  5300 ;; Data sizes:     COMMON   BANK0   BANK1   BANK2   BANK3   BANK4   BANK5   BANK6
  5301 ;;      Params:         0       0       0       0       0       0       0       0
  5302 ;;      Locals:         0       0       0       0       0       0       0       0
  5303 ;;      Temps:          0       0       0       0       0       0       0       0
  5304 ;;      Totals:         0       0       0       0       0       0       0       0
  5305 ;;Total ram usage:        0 bytes
  5306 ;; Hardware stack levels used:    1
  5307 ;; Hardware stack levels required when called:    4
  5308 ;; This function calls:
  5309 ;;		Nothing
  5310 ;; This function is called by:
  5311 ;;		_SYSTEM_Initialize
  5312 ;; This function uses a non-reentrant model
  5313 ;;
  5314                           
  5315                           
  5316                           ;psect for function _ADC_Initialize
  5317  0476                     _ADC_Initialize:
  5318  0476                     l1752:	
  5319                           ;incstack = 0
  5320                           ; Regs used in _ADC_Initialize: [wreg+status,2]
  5321                           
  5322                           
  5323                           ;mcc_generated_files/adc.c: 72:     ADCON1 = 0x50;
  5324  0476  3050               	movlw	80
  5325  0477  0021               	movlb	1	; select bank1
  5326  0478  009E               	movwf	30	;volatile
  5327  0479                     l1754:
  5328                           
  5329                           ;mcc_generated_files/adc.c: 75:     ADACT = 0x00;
  5330  0479  019F               	clrf	31	;volatile
  5331  047A                     l1756:
  5332                           
  5333                           ;mcc_generated_files/adc.c: 78:     ADRESL = 0x00;
  5334  047A  019B               	clrf	27	;volatile
  5335  047B                     l1758:
  5336                           
  5337                           ;mcc_generated_files/adc.c: 81:     ADRESH = 0x00;
  5338  047B  019C               	clrf	28	;volatile
  5339  047C                     l1760:
  5340                           
  5341                           ;mcc_generated_files/adc.c: 84:     ADCON0 = 0x01;
  5342  047C  3001               	movlw	1
  5343  047D  009D               	movwf	29	;volatile
  5344  047E                     l125:
  5345  047E  0008               	return
  5346  047F                     __end_of_ADC_Initialize:
  5347                           
  5348                           	psect	text13
  5349  03D0                     __ptext13:	
  5350 ;; *************** function _ADC_GetConversion *****************
  5351 ;; Defined at:
  5352 ;;		line 115 in file "mcc_generated_files/adc.c"
  5353 ;; Parameters:    Size  Location     Type
  5354 ;;  channel         1    wreg     enum E6469
  5355 ;; Auto vars:     Size  Location     Type
  5356 ;;  channel         1    9[BANK0 ] enum E6469
  5357 ;; Return value:  Size  Location     Type
  5358 ;;                  2    5[BANK0 ] unsigned short 
  5359 ;; Registers used:
  5360 ;;		wreg, status,2, status,0
  5361 ;; Tracked objects:
  5362 ;;		On entry : 0/0
  5363 ;;		On exit  : 0/0
  5364 ;;		Unchanged: 0/0
  5365 ;; Data sizes:     COMMON   BANK0   BANK1   BANK2   BANK3   BANK4   BANK5   BANK6
  5366 ;;      Params:         0       2       0       0       0       0       0       0
  5367 ;;      Locals:         0       1       0       0       0       0       0       0
  5368 ;;      Temps:          0       2       0       0       0       0       0       0
  5369 ;;      Totals:         0       5       0       0       0       0       0       0
  5370 ;;Total ram usage:        5 bytes
  5371 ;; Hardware stack levels used:    1
  5372 ;; Hardware stack levels required when called:    4
  5373 ;; This function calls:
  5374 ;;		Nothing
  5375 ;; This function is called by:
  5376 ;;		_main
  5377 ;; This function uses a non-reentrant model
  5378 ;;
  5379                           
  5380                           
  5381                           ;psect for function _ADC_GetConversion
  5382  03D0                     _ADC_GetConversion:
  5383                           
  5384                           ;incstack = 0
  5385                           ; Regs used in _ADC_GetConversion: [wreg+status,2+status,0]
  5386                           ;ADC_GetConversion@channel stored from wreg
  5387  03D0  0020               	movlb	0	; select bank0
  5388  03D1  00CB               	movwf	ADC_GetConversion@channel
  5389  03D2                     l1802:
  5390                           
  5391                           ;mcc_generated_files/adc.c: 115: adc_result_t ADC_GetConversion(adc_channel_t channel);m
      +                          cc_generated_files/adc.c: 116: {;mcc_generated_files/adc.c: 118:     ADCON0bits.CHS = ch
      +                          annel;
  5392  03D2  084B               	movf	ADC_GetConversion@channel,w
  5393  03D3  00C9               	movwf	??_ADC_GetConversion
  5394  03D4  0DC9               	rlf	??_ADC_GetConversion,f
  5395  03D5  0DC9               	rlf	??_ADC_GetConversion,f
  5396  03D6  0021               	movlb	1	; select bank1
  5397  03D7  081D               	movf	29,w	;volatile
  5398  03D8  0020               	movlb	0	; select bank0
  5399  03D9  0649               	xorwf	??_ADC_GetConversion,w
  5400  03DA  3903               	andlw	-253
  5401  03DB  0649               	xorwf	??_ADC_GetConversion,w
  5402  03DC  0021               	movlb	1	; select bank1
  5403  03DD  009D               	movwf	29	;volatile
  5404  03DE                     l1804:
  5405                           
  5406                           ;mcc_generated_files/adc.c: 121:     ADCON0bits.ADON = 1;
  5407  03DE  141D               	bsf	29,0	;volatile
  5408  03DF                     l1806:
  5409                           
  5410                           ;mcc_generated_files/adc.c: 124:     _delay((unsigned long)((5)*(8000000/4000000.0)));
  5411  03DF  3003               	movlw	3
  5412  03E0                     u777:
  5413  03E0  0B89               	decfsz	9,f
  5414  03E1  2BE0               	goto	u777
  5415  03E2  0000               	nop
  5416  03E3                     l1808:
  5417                           
  5418                           ;mcc_generated_files/adc.c: 127:     ADCON0bits.ADGO = 1;
  5419  03E3  0021               	movlb	1	; select bank1
  5420  03E4  149D               	bsf	29,1	;volatile
  5421  03E5                     l140:	
  5422                           ;mcc_generated_files/adc.c: 131:     {;mcc_generated_files/adc.c: 132:     }
  5423                           
  5424                           
  5425                           ;mcc_generated_files/adc.c: 130:     while (ADCON0bits.ADGO)
  5426  03E5  189D               	btfsc	29,1	;volatile
  5427  03E6  2BE8               	goto	u681
  5428  03E7  2BE9               	goto	u680
  5429  03E8                     u681:
  5430  03E8  2BE5               	goto	l140
  5431  03E9                     u680:
  5432  03E9                     l1810:
  5433                           
  5434                           ;mcc_generated_files/adc.c: 136:     return (adc_result_t)(ADRESH);
  5435  03E9  081C               	movf	28,w	;volatile
  5436  03EA  0020               	movlb	0	; select bank0
  5437  03EB  00C9               	movwf	??_ADC_GetConversion
  5438  03EC  01CA               	clrf	??_ADC_GetConversion+1
  5439  03ED  0849               	movf	??_ADC_GetConversion,w
  5440  03EE  00C7               	movwf	?_ADC_GetConversion
  5441  03EF  084A               	movf	??_ADC_GetConversion+1,w
  5442  03F0  00C8               	movwf	?_ADC_GetConversion+1
  5443  03F1                     l143:
  5444  03F1  0008               	return
  5445  03F2                     __end_of_ADC_GetConversion:
  5446                           
  5447                           	psect	intentry
  5448  0004                     __pintentry:	
  5449 ;; *************** function _INTERRUPT_InterruptManager *****************
  5450 ;; Defined at:
  5451 ;;		line 52 in file "mcc_generated_files/interrupt_manager.c"
  5452 ;; Parameters:    Size  Location     Type
  5453 ;;		None
  5454 ;; Auto vars:     Size  Location     Type
  5455 ;;		None
  5456 ;; Return value:  Size  Location     Type
  5457 ;;                  1    wreg      void 
  5458 ;; Registers used:
  5459 ;;		wreg, fsr1l, fsr1h, status,2, status,0, pclath, cstack
  5460 ;; Tracked objects:
  5461 ;;		On entry : 0/0
  5462 ;;		On exit  : 0/0
  5463 ;;		Unchanged: 0/0
  5464 ;; Data sizes:     COMMON   BANK0   BANK1   BANK2   BANK3   BANK4   BANK5   BANK6
  5465 ;;      Params:         0       0       0       0       0       0       0       0
  5466 ;;      Locals:         0       0       0       0       0       0       0       0
  5467 ;;      Temps:          0       0       0       0       0       0       0       0
  5468 ;;      Totals:         0       0       0       0       0       0       0       0
  5469 ;;Total ram usage:        0 bytes
  5470 ;; Hardware stack levels used:    1
  5471 ;; Hardware stack levels required when called:    3
  5472 ;; This function calls:
  5473 ;;		_TMR2_ISR
  5474 ;; This function is called by:
  5475 ;;		Interrupt level 1
  5476 ;; This function uses a non-reentrant model
  5477 ;;
  5478                           
  5479  0004                     _INTERRUPT_InterruptManager:
  5480                           
  5481                           ;incstack = 0
  5482  0004  147E               	bsf	int$flags,0	;set compiler interrupt flag (level 1)
  5483                           
  5484                           ; Regs used in _INTERRUPT_InterruptManager: [wreg+fsr1l+fsr1h+status,2+status,0+pclath+c
      +                          stack]
  5485  0005  3180               	pagesel	$
  5486  0006                     i1l1864:
  5487                           
  5488                           ;mcc_generated_files/interrupt_manager.c: 55:     if(INTCONbits.PEIE == 1)
  5489  0006  1F0B               	btfss	11,6	;volatile
  5490  0007  2809               	goto	u72_21
  5491  0008  280A               	goto	u72_20
  5492  0009                     u72_21:
  5493  0009  2817               	goto	i1l327
  5494  000A                     u72_20:
  5495  000A                     i1l1866:
  5496                           
  5497                           ;mcc_generated_files/interrupt_manager.c: 56:     {;mcc_generated_files/interrupt_manage
      +                          r.c: 57:         if(PIE1bits.TMR2IE == 1 && PIR1bits.TMR2IF == 1)
  5498  000A  0021               	movlb	1	; select bank1
  5499  000B  1C91               	btfss	17,1	;volatile
  5500  000C  280E               	goto	u73_21
  5501  000D  280F               	goto	u73_20
  5502  000E                     u73_21:
  5503  000E  2817               	goto	i1l327
  5504  000F                     u73_20:
  5505  000F                     i1l1868:
  5506  000F  0020               	movlb	0	; select bank0
  5507  0010  1C91               	btfss	17,1	;volatile
  5508  0011  2813               	goto	u74_21
  5509  0012  2814               	goto	u74_20
  5510  0013                     u74_21:
  5511  0013  2817               	goto	i1l327
  5512  0014                     u74_20:
  5513  0014                     i1l1870:
  5514                           
  5515                           ;mcc_generated_files/interrupt_manager.c: 58:         {;mcc_generated_files/interrupt_ma
      +                          nager.c: 59:             TMR2_ISR();
  5516  0014  3184  2453  3180   	fcall	_TMR2_ISR
  5517  0017                     i1l327:	
  5518                           ;mcc_generated_files/interrupt_manager.c: 60:         }
  5519                           
  5520  0017  107E               	bcf	int$flags,0	;clear compiler interrupt flag (level 1)
  5521  0018  0009               	retfie
  5522  0019                     __end_of_INTERRUPT_InterruptManager:
  5523                           
  5524                           	psect	text15
  5525  0453                     __ptext15:	
  5526 ;; *************** function _TMR2_ISR *****************
  5527 ;; Defined at:
  5528 ;;		line 119 in file "mcc_generated_files/tmr2.c"
  5529 ;; Parameters:    Size  Location     Type
  5530 ;;		None
  5531 ;; Auto vars:     Size  Location     Type
  5532 ;;		None
  5533 ;; Return value:  Size  Location     Type
  5534 ;;                  1    wreg      void 
  5535 ;; Registers used:
  5536 ;;		wreg, fsr1l, fsr1h, status,2, status,0, pclath, cstack
  5537 ;; Tracked objects:
  5538 ;;		On entry : 0/0
  5539 ;;		On exit  : 0/0
  5540 ;;		Unchanged: 0/0
  5541 ;; Data sizes:     COMMON   BANK0   BANK1   BANK2   BANK3   BANK4   BANK5   BANK6
  5542 ;;      Params:         0       0       0       0       0       0       0       0
  5543 ;;      Locals:         0       0       0       0       0       0       0       0
  5544 ;;      Temps:          0       0       0       0       0       0       0       0
  5545 ;;      Totals:         0       0       0       0       0       0       0       0
  5546 ;;Total ram usage:        0 bytes
  5547 ;; Hardware stack levels used:    1
  5548 ;; Hardware stack levels required when called:    2
  5549 ;; This function calls:
  5550 ;;		Absolute function
  5551 ;;		_TMR2_DefaultInterruptHandler
  5552 ;;		_Timer2ISR
  5553 ;; This function is called by:
  5554 ;;		_INTERRUPT_InterruptManager
  5555 ;; This function uses a non-reentrant model
  5556 ;;
  5557                           
  5558                           
  5559                           ;psect for function _TMR2_ISR
  5560  0453                     _TMR2_ISR:
  5561  0453                     i1l1814:	
  5562                           ;incstack = 0
  5563                           ; Regs used in _TMR2_ISR: [wreg+fsr1l+fsr1h+status,2+status,0+pclath+cstack]
  5564                           
  5565                           
  5566                           ;mcc_generated_files/tmr2.c: 123:     PIR1bits.TMR2IF = 0;
  5567  0453  0020               	movlb	0	; select bank0
  5568  0454  1091               	bcf	17,1	;volatile
  5569  0455                     i1l1816:
  5570                           
  5571                           ;mcc_generated_files/tmr2.c: 125:     if(TMR2_InterruptHandler)
  5572  0455  0859               	movf	_TMR2_InterruptHandler,w
  5573  0456  045A               	iorwf	_TMR2_InterruptHandler+1,w
  5574  0457  1903               	btfsc	3,2
  5575  0458  2C5A               	goto	u69_21
  5576  0459  2C5B               	goto	u69_20
  5577  045A                     u69_21:
  5578  045A  2C60               	goto	i1l304
  5579  045B                     u69_20:
  5580  045B                     i1l1818:
  5581                           
  5582                           ;mcc_generated_files/tmr2.c: 126:     {;mcc_generated_files/tmr2.c: 127:         TMR2_In
      +                          terruptHandler();
  5583  045B  085A               	movf	_TMR2_InterruptHandler+1,w
  5584  045C  008A               	movwf	10
  5585  045D  0859               	movf	_TMR2_InterruptHandler,w
  5586  045E  000A               	callw
  5587  045F  3184               	pagesel	$
  5588  0460                     i1l304:
  5589  0460  0008               	return
  5590  0461                     __end_of_TMR2_ISR:
  5591                           
  5592                           	psect	text16
  5593  0493                     __ptext16:	
  5594 ;; *************** function _TMR2_DefaultInterruptHandler *****************
  5595 ;; Defined at:
  5596 ;;		line 136 in file "mcc_generated_files/tmr2.c"
  5597 ;; Parameters:    Size  Location     Type
  5598 ;;		None
  5599 ;; Auto vars:     Size  Location     Type
  5600 ;;		None
  5601 ;; Return value:  Size  Location     Type
  5602 ;;                  1    wreg      void 
  5603 ;; Registers used:
  5604 ;;		None
  5605 ;; Tracked objects:
  5606 ;;		On entry : 0/0
  5607 ;;		On exit  : 0/0
  5608 ;;		Unchanged: 0/0
  5609 ;; Data sizes:     COMMON   BANK0   BANK1   BANK2   BANK3   BANK4   BANK5   BANK6
  5610 ;;      Params:         0       0       0       0       0       0       0       0
  5611 ;;      Locals:         0       0       0       0       0       0       0       0
  5612 ;;      Temps:          0       0       0       0       0       0       0       0
  5613 ;;      Totals:         0       0       0       0       0       0       0       0
  5614 ;;Total ram usage:        0 bytes
  5615 ;; Hardware stack levels used:    1
  5616 ;; This function calls:
  5617 ;;		Nothing
  5618 ;; This function is called by:
  5619 ;;		_TMR2_Initialize
  5620 ;;		_TMR2_ISR
  5621 ;; This function uses a non-reentrant model
  5622 ;;
  5623                           
  5624                           
  5625                           ;psect for function _TMR2_DefaultInterruptHandler
  5626  0493                     _TMR2_DefaultInterruptHandler:
  5627  0493                     i1l310:	
  5628                           ;incstack = 0
  5629                           ; Regs used in _TMR2_DefaultInterruptHandler: []
  5630                           
  5631  0493  0008               	return
  5632  0494                     __end_of_TMR2_DefaultInterruptHandler:
  5633                           
  5634                           	psect	text17
  5635  03AD                     __ptext17:	
  5636 ;; *************** function _Timer2ISR *****************
  5637 ;; Defined at:
  5638 ;;		line 222 in file "main.c"
  5639 ;; Parameters:    Size  Location     Type
  5640 ;;		None
  5641 ;; Auto vars:     Size  Location     Type
  5642 ;;		None
  5643 ;; Return value:  Size  Location     Type
  5644 ;;                  1    wreg      void 
  5645 ;; Registers used:
  5646 ;;		wreg, fsr1l, fsr1h, status,2, status,0, pclath, cstack
  5647 ;; Tracked objects:
  5648 ;;		On entry : 0/0
  5649 ;;		On exit  : 0/0
  5650 ;;		Unchanged: 0/0
  5651 ;; Data sizes:     COMMON   BANK0   BANK1   BANK2   BANK3   BANK4   BANK5   BANK6
  5652 ;;      Params:         0       0       0       0       0       0       0       0
  5653 ;;      Locals:         0       0       0       0       0       0       0       0
  5654 ;;      Temps:          0       5       0       0       0       0       0       0
  5655 ;;      Totals:         0       5       0       0       0       0       0       0
  5656 ;;Total ram usage:        5 bytes
  5657 ;; Hardware stack levels used:    1
  5658 ;; Hardware stack levels required when called:    1
  5659 ;; This function calls:
  5660 ;;		_envelope_control
  5661 ;;		i1_load_dac
  5662 ;; This function is called by:
  5663 ;;		_main
  5664 ;;		_TMR2_ISR
  5665 ;; This function uses a non-reentrant model
  5666 ;;
  5667                           
  5668                           
  5669                           ;psect for function _Timer2ISR
  5670  03AD                     _Timer2ISR:
  5671  03AD                     i1l1796:	
  5672                           ;incstack = 0
  5673                           ; Regs used in _Timer2ISR: [wreg+fsr1l+fsr1h+status,2+status,0+pclath+cstack]
  5674                           
  5675                           
  5676                           ;main.c: 230:     envelope_control(0, PORTAbits.RA5);
  5677  03AD  3000               	movlw	0
  5678  03AE  0020               	movlb	0	; select bank0
  5679  03AF  1A8C               	btfsc	12,5	;volatile
  5680  03B0  3001               	movlw	1
  5681  03B1  00F0               	movwf	envelope_control@gate
  5682  03B2  3000               	movlw	0
  5683  03B3  3180  2037  3183   	fcall	_envelope_control
  5684  03B6                     i1l1798:
  5685                           
  5686                           ;main.c: 233:     load_dac(0, (env_level[0] >> 4));
  5687  03B6  0020               	movlb	0	; select bank0
  5688  03B7  0820               	movf	_env_level,w
  5689  03B8  00C2               	movwf	??_Timer2ISR
  5690  03B9  0821               	movf	_env_level+1,w
  5691  03BA  00C3               	movwf	??_Timer2ISR+1
  5692  03BB  0822               	movf	_env_level+2,w
  5693  03BC  00C4               	movwf	??_Timer2ISR+2
  5694  03BD  0823               	movf	_env_level+3,w
  5695  03BE  00C5               	movwf	??_Timer2ISR+3
  5696  03BF  3004               	movlw	4
  5697  03C0  00C6               	movwf	??_Timer2ISR+4
  5698  03C1                     u67_25:
  5699  03C1  37C5               	asrf	??_Timer2ISR+3,f
  5700  03C2  0CC4               	rrf	??_Timer2ISR+2,f
  5701  03C3  0CC3               	rrf	??_Timer2ISR+1,f
  5702  03C4  0CC2               	rrf	??_Timer2ISR,f
  5703  03C5                     u67_20:
  5704  03C5  0BC6               	decfsz	??_Timer2ISR+4,f
  5705  03C6  2BC1               	goto	u67_25
  5706  03C7  0843               	movf	??_Timer2ISR+1,w
  5707  03C8  00F1               	movwf	i1load_dac@val+1
  5708  03C9  0842               	movf	??_Timer2ISR,w
  5709  03CA  00F0               	movwf	i1load_dac@val
  5710  03CB  3000               	movlw	0
  5711  03CC  3183  2382  3183   	fcall	i1_load_dac
  5712  03CF                     i1l436:
  5713  03CF  0008               	return
  5714  03D0                     __end_of_Timer2ISR:
  5715                           
  5716                           	psect	text18
  5717  0382                     __ptext18:	
  5718 ;; *************** function i1_load_dac *****************
  5719 ;; Defined at:
  5720 ;;		line 241 in file "main.c"
  5721 ;; Parameters:    Size  Location     Type
  5722 ;;  chan            1    wreg     unsigned char 
  5723 ;;  val             2    0[COMMON] unsigned int 
  5724 ;; Auto vars:     Size  Location     Type
  5725 ;;  chan            1    4[COMMON] unsigned char 
  5726 ;;  dac_bits        1    7[COMMON] unsigned char 
  5727 ;;  temp_l          1    6[COMMON] unsigned char 
  5728 ;;  temp_h          1    5[COMMON] unsigned char 
  5729 ;;  read_buf        1    0        unsigned char 
  5730 ;; Return value:  Size  Location     Type
  5731 ;;                  1    wreg      void 
  5732 ;; Registers used:
  5733 ;;		wreg, status,2, status,0
  5734 ;; Tracked objects:
  5735 ;;		On entry : 0/0
  5736 ;;		On exit  : 0/0
  5737 ;;		Unchanged: 0/0
  5738 ;; Data sizes:     COMMON   BANK0   BANK1   BANK2   BANK3   BANK4   BANK5   BANK6
  5739 ;;      Params:         2       0       0       0       0       0       0       0
  5740 ;;      Locals:         5       0       0       0       0       0       0       0
  5741 ;;      Temps:          1       0       0       0       0       0       0       0
  5742 ;;      Totals:         8       0       0       0       0       0       0       0
  5743 ;;Total ram usage:        8 bytes
  5744 ;; Hardware stack levels used:    1
  5745 ;; This function calls:
  5746 ;;		Nothing
  5747 ;; This function is called by:
  5748 ;;		_Timer2ISR
  5749 ;; This function uses a non-reentrant model
  5750 ;;
  5751                           
  5752                           
  5753                           ;psect for function i1_load_dac
  5754  0382                     i1_load_dac:
  5755                           
  5756                           ;incstack = 0
  5757                           ; Regs used in i1_load_dac: [wreg+status,2+status,0]
  5758                           ;i1load_dac@chan stored from wreg
  5759  0382  00F4               	movwf	i1load_dac@chan
  5760  0383                     i1l1682:
  5761                           
  5762                           ;main.c: 244:     unsigned char dac_bits;;main.c: 245:     unsigned char temp_h;;main.c:
      +                           246:     unsigned char temp_l;;main.c: 247:     unsigned char read_buf;;main.c: 249:   
      +                            temp_h = val >> 8;
  5763  0383  0871               	movf	i1load_dac@val+1,w
  5764  0384  00F2               	movwf	??i1_load_dac
  5765  0385  0872               	movf	??i1_load_dac,w
  5766  0386  00F5               	movwf	i1load_dac@temp_h
  5767  0387                     i1l1684:
  5768                           
  5769                           ;main.c: 250:     temp_l = val;
  5770  0387  0870               	movf	i1load_dac@val,w
  5771  0388  00F2               	movwf	??i1_load_dac
  5772  0389  0872               	movf	??i1_load_dac,w
  5773  038A  00F6               	movwf	i1load_dac@temp_l
  5774  038B                     i1l1686:
  5775                           
  5776                           ;main.c: 252:     TRISBbits.TRISB6 = 0;
  5777  038B  0021               	movlb	1	; select bank1
  5778  038C  130D               	bcf	13,6	;volatile
  5779  038D                     i1l1688:
  5780                           
  5781                           ;main.c: 253:     TRISCbits.TRISC7 = 0;
  5782  038D  138E               	bcf	14,7	;volatile
  5783  038E                     i1l1690:
  5784                           
  5785                           ;main.c: 257:     if(chan) dac_bits = 0b10010000;
  5786  038E  0874               	movf	i1load_dac@chan,w
  5787  038F  1903               	btfsc	3,2
  5788  0390  2B92               	goto	u66_21
  5789  0391  2B93               	goto	u66_20
  5790  0392                     u66_21:
  5791  0392  2B98               	goto	i1l1694
  5792  0393                     u66_20:
  5793  0393                     i1l1692:
  5794  0393  3090               	movlw	144
  5795  0394  00F2               	movwf	??i1_load_dac
  5796  0395  0872               	movf	??i1_load_dac,w
  5797  0396  00F7               	movwf	i1load_dac@dac_bits
  5798  0397  2B9C               	goto	i1l440
  5799  0398                     i1l1694:
  5800  0398  3010               	movlw	16
  5801  0399  00F2               	movwf	??i1_load_dac
  5802  039A  0872               	movf	??i1_load_dac,w
  5803  039B  00F7               	movwf	i1load_dac@dac_bits
  5804  039C                     i1l440:
  5805  039C  0024               	movlb	4	; select bank4
  5806  039D  0811               	movf	17,w	;volatile
  5807                           
  5808                           ;main.c: 263:     SSP1CON1 = 0x20;
  5809  039E  3020               	movlw	32
  5810  039F  0095               	movwf	21	;volatile
  5811                           
  5812                           ;main.c: 264:     SSP1STAT = 0x40;
  5813  03A0  3040               	movlw	64
  5814  03A1  0094               	movwf	20	;volatile
  5815  03A2                     i1l1696:
  5816                           
  5817                           ;main.c: 265:     LATBbits.LATB7 = 0;
  5818  03A2  0022               	movlb	2	; select bank2
  5819  03A3  138D               	bcf	13,7	;volatile
  5820  03A4                     i1l1698:
  5821                           
  5822                           ;main.c: 268:     SSP1BUF = dac_bits | temp_h;
  5823  03A4  0877               	movf	i1load_dac@dac_bits,w
  5824  03A5  0475               	iorwf	i1load_dac@temp_h,w
  5825  03A6  0024               	movlb	4	; select bank4
  5826  03A7  0091               	movwf	17	;volatile
  5827  03A8                     i1l1700:
  5828                           
  5829                           ;main.c: 274:     SSP1BUF = temp_l;
  5830  03A8  0876               	movf	i1load_dac@temp_l,w
  5831  03A9  0091               	movwf	17	;volatile
  5832  03AA                     i1l1702:
  5833                           
  5834                           ;main.c: 278:     LATBbits.LATB7 = 1;
  5835  03AA  0022               	movlb	2	; select bank2
  5836  03AB  178D               	bsf	13,7	;volatile
  5837  03AC                     i1l441:
  5838  03AC  0008               	return
  5839  03AD                     __end_ofi1_load_dac:
  5840                           
  5841                           	psect	text19
  5842  0037                     __ptext19:	
  5843 ;; *************** function _envelope_control *****************
  5844 ;; Defined at:
  5845 ;;		line 290 in file "main.c"
  5846 ;; Parameters:    Size  Location     Type
  5847 ;;  chan            1    wreg     unsigned char 
  5848 ;;  gate            1    0[COMMON] unsigned char 
  5849 ;; Auto vars:     Size  Location     Type
  5850 ;;  chan            1   13[COMMON] unsigned char 
  5851 ;; Return value:  Size  Location     Type
  5852 ;;                  1    wreg      void 
  5853 ;; Registers used:
  5854 ;;		wreg, fsr1l, fsr1h, status,2, status,0
  5855 ;; Tracked objects:
  5856 ;;		On entry : 0/0
  5857 ;;		On exit  : 0/0
  5858 ;;		Unchanged: 0/0
  5859 ;; Data sizes:     COMMON   BANK0   BANK1   BANK2   BANK3   BANK4   BANK5   BANK6
  5860 ;;      Params:         1       0       0       0       0       0       0       0
  5861 ;;      Locals:         1       0       0       0       0       0       0       0
  5862 ;;      Temps:         12       0       0       0       0       0       0       0
  5863 ;;      Totals:        14       0       0       0       0       0       0       0
  5864 ;;Total ram usage:       14 bytes
  5865 ;; Hardware stack levels used:    1
  5866 ;; This function calls:
  5867 ;;		Nothing
  5868 ;; This function is called by:
  5869 ;;		_Timer2ISR
  5870 ;; This function uses a non-reentrant model
  5871 ;;
  5872                           
  5873                           
  5874                           ;psect for function _envelope_control
  5875  0037                     _envelope_control:
  5876                           
  5877                           ;incstack = 0
  5878                           ; Regs used in _envelope_control: [wreg+fsr1l+fsr1h+status,2+status,0]
  5879                           ;envelope_control@chan stored from wreg
  5880  0037  00FD               	movwf	envelope_control@chan
  5881  0038                     i1l1632:
  5882                           
  5883                           ;main.c: 292:  if(chan > 1) return;
  5884  0038  3002               	movlw	2
  5885  0039  027D               	subwf	envelope_control@chan,w
  5886  003A  1C03               	skipc
  5887  003B  283D               	goto	u44_21
  5888  003C  283E               	goto	u44_20
  5889  003D                     u44_21:
  5890  003D  283F               	goto	i1l1638
  5891  003E                     u44_20:
  5892  003E  29F2               	goto	i1l449
  5893  003F                     i1l1638:
  5894                           
  5895                           ;main.c: 300:   if(gate == 0 && gate_state[chan] == 0) {
  5896  003F  0870               	movf	envelope_control@gate,w
  5897  0040  1D03               	btfss	3,2
  5898  0041  2843               	goto	u45_21
  5899  0042  2844               	goto	u45_20
  5900  0043                     u45_21:
  5901  0043  2859               	goto	i1l1644
  5902  0044                     u45_20:
  5903  0044                     i1l1640:
  5904  0044  087D               	movf	envelope_control@chan,w
  5905  0045  3E3C               	addlw	(low (_gate_state| 0))& (0+255)
  5906  0046  0086               	movwf	6
  5907  0047  0187               	clrf	7
  5908  0048  0801               	movf	1,w
  5909  0049  1D03               	btfss	3,2
  5910  004A  284C               	goto	u46_21
  5911  004B  284D               	goto	u46_20
  5912  004C                     u46_21:
  5913  004C  2859               	goto	i1l1644
  5914  004D                     u46_20:
  5915  004D                     i1l1642:
  5916                           
  5917                           ;main.c: 301:    gate_state[chan] = 1;
  5918  004D  087D               	movf	envelope_control@chan,w
  5919  004E  3E3C               	addlw	(low (_gate_state| 0))& (0+255)
  5920  004F  0086               	movwf	6
  5921  0050  0187               	clrf	7
  5922  0051  0181               	clrf	1
  5923  0052  0A81               	incf	1,f
  5924                           
  5925                           ;main.c: 302:    env_state[chan] = 1;
  5926  0053  087D               	movf	envelope_control@chan,w
  5927  0054  3E3E               	addlw	(low (_env_state| 0))& (0+255)
  5928  0055  0086               	movwf	6
  5929  0056  0187               	clrf	7
  5930  0057  0181               	clrf	1
  5931  0058  0A81               	incf	1,f
  5932  0059                     i1l1644:
  5933                           
  5934                           ;main.c: 306:   if(gate == 1 && gate_state[chan] == 1) {
  5935  0059  0370               	decf	envelope_control@gate,w
  5936  005A  1D03               	btfss	3,2
  5937  005B  285D               	goto	u47_21
  5938  005C  285E               	goto	u47_20
  5939  005D                     u47_21:
  5940  005D  2874               	goto	i1l450
  5941  005E                     u47_20:
  5942  005E                     i1l1646:
  5943  005E  087D               	movf	envelope_control@chan,w
  5944  005F  3E3C               	addlw	(low (_gate_state| 0))& (0+255)
  5945  0060  0086               	movwf	6
  5946  0061  0187               	clrf	7
  5947  0062  0301               	decf	1,w
  5948  0063  1D03               	btfss	3,2
  5949  0064  2866               	goto	u48_21
  5950  0065  2867               	goto	u48_20
  5951  0066                     u48_21:
  5952  0066  2874               	goto	i1l450
  5953  0067                     u48_20:
  5954  0067                     i1l1648:
  5955                           
  5956                           ;main.c: 307:    gate_state[chan] = 0;
  5957  0067  087D               	movf	envelope_control@chan,w
  5958  0068  3E3C               	addlw	(low (_gate_state| 0))& (0+255)
  5959  0069  0086               	movwf	6
  5960  006A  0187               	clrf	7
  5961  006B  0181               	clrf	1
  5962                           
  5963                           ;main.c: 309:    env_state[chan] = 4;
  5964  006C  3004               	movlw	4
  5965  006D  00F1               	movwf	??_envelope_control
  5966  006E  087D               	movf	envelope_control@chan,w
  5967  006F  3E3E               	addlw	(low (_env_state| 0))& (0+255)
  5968  0070  0086               	movwf	6
  5969  0071  0187               	clrf	7
  5970  0072  0871               	movf	??_envelope_control,w
  5971  0073  0081               	movwf	1
  5972  0074                     i1l450:	
  5973                           ;main.c: 314:  }
  5974                           
  5975                           
  5976                           ;main.c: 320:  if(env_state[chan] == 1) {
  5977  0074  087D               	movf	envelope_control@chan,w
  5978  0075  3E3E               	addlw	(low (_env_state| 0))& (0+255)
  5979  0076  0086               	movwf	6
  5980  0077  0187               	clrf	7
  5981  0078  0301               	decf	1,w
  5982  0079  1D03               	btfss	3,2
  5983  007A  287C               	goto	u49_21
  5984  007B  287D               	goto	u49_20
  5985  007C                     u49_21:
  5986  007C  28D6               	goto	i1l1656
  5987  007D                     u49_20:
  5988  007D                     i1l1650:
  5989                           
  5990                           ;main.c: 321:   env_level[chan] += attack[chan];
  5991  007D  357D               	lslf	envelope_control@chan,w
  5992  007E  3E38               	addlw	(low (_attack| 0))& (0+255)
  5993  007F  0086               	movwf	6
  5994  0080  0187               	clrf	7
  5995  0081  3F40               	moviw [0]fsr1
  5996  0082  00F1               	movwf	??_envelope_control
  5997  0083  3F41               	moviw [1]fsr1
  5998  0084  00F2               	movwf	??_envelope_control+1
  5999  0085  0871               	movf	??_envelope_control,w
  6000  0086  00F3               	movwf	??_envelope_control+2
  6001  0087  0872               	movf	??_envelope_control+1,w
  6002  0088  00F4               	movwf	??_envelope_control+3
  6003  0089  01F5               	clrf	??_envelope_control+4
  6004  008A  01F6               	clrf	??_envelope_control+5
  6005  008B  087D               	movf	envelope_control@chan,w
  6006  008C  00F7               	movwf	??_envelope_control+6
  6007  008D  3001               	movlw	1
  6008  008E                     u50_25:
  6009  008E  35F7               	lslf	??_envelope_control+6,f
  6010  008F  3EFF               	addlw	-1
  6011  0090  1D03               	skipz
  6012  0091  288E               	goto	u50_25
  6013  0092  3577               	lslf	??_envelope_control+6,w
  6014  0093  3E20               	addlw	(low (_env_level| 0))& (0+255)
  6015  0094  0086               	movwf	6
  6016  0095  0187               	clrf	7
  6017  0096  0873               	movf	??_envelope_control+2,w
  6018  0097  0781               	addwf	1,f
  6019  0098  3141               	addfsr 1,1
  6020  0099  0874               	movf	??_envelope_control+3,w
  6021  009A  3D81               	addwfc	1,f
  6022  009B  3141               	addfsr 1,1
  6023  009C  0875               	movf	??_envelope_control+4,w
  6024  009D  3D81               	addwfc	1,f
  6025  009E  3141               	addfsr 1,1
  6026  009F  0876               	movf	??_envelope_control+5,w
  6027  00A0  3D81               	addwfc	1,f
  6028                           
  6029                           ;main.c: 323:   if(env_level[chan] > 65535) {
  6030  00A1  087D               	movf	envelope_control@chan,w
  6031  00A2  00F1               	movwf	??_envelope_control
  6032  00A3  3001               	movlw	1
  6033  00A4                     u51_25:
  6034  00A4  35F1               	lslf	??_envelope_control,f
  6035  00A5  3EFF               	addlw	-1
  6036  00A6  1D03               	skipz
  6037  00A7  28A4               	goto	u51_25
  6038  00A8  3571               	lslf	??_envelope_control,w
  6039  00A9  3E20               	addlw	(low (_env_level| 0))& (0+255)
  6040  00AA  0086               	movwf	6
  6041  00AB  0187               	clrf	7
  6042  00AC  3F43               	moviw [3]fsr1
  6043  00AD  1B89               	btfsc	9,7
  6044  00AE  28B9               	goto	u52_21
  6045  00AF  3F43               	moviw [3]fsr1
  6046  00B0  1D03               	btfss	3,2
  6047  00B1  28BA               	goto	u52_20
  6048  00B2  3F42               	moviw [2]fsr1
  6049  00B3  00F2               	movwf	??_envelope_control+1
  6050  00B4  3001               	movlw	1
  6051  00B5  0272               	subwf	??_envelope_control+1,w
  6052  00B6  1C03               	btfss	3,0
  6053  00B7  28B9               	goto	u52_21
  6054  00B8  28BA               	goto	u52_20
  6055  00B9                     u52_21:
  6056  00B9  29F2               	goto	i1l449
  6057  00BA                     u52_20:
  6058  00BA                     i1l1652:
  6059                           
  6060                           ;main.c: 324:    env_level[chan] = 65535;
  6061  00BA  087D               	movf	envelope_control@chan,w
  6062  00BB  00F1               	movwf	??_envelope_control
  6063  00BC  3001               	movlw	1
  6064  00BD                     u53_25:
  6065  00BD  35F1               	lslf	??_envelope_control,f
  6066  00BE  3EFF               	addlw	-1
  6067  00BF  1D03               	skipz
  6068  00C0  28BD               	goto	u53_25
  6069  00C1  3571               	lslf	??_envelope_control,w
  6070  00C2  3E20               	addlw	(low (_env_level| 0))& (0+255)
  6071  00C3  0086               	movwf	6
  6072  00C4  0187               	clrf	7
  6073  00C5  30FF               	movlw	255
  6074  00C6  3FC0               	movwi [0]fsr1
  6075  00C7  30FF               	movlw	255
  6076  00C8  3FC1               	movwi [1]fsr1
  6077  00C9  3000               	movlw	0
  6078  00CA  3FC2               	movwi [2]fsr1
  6079  00CB  3000               	movlw	0
  6080  00CC  3FC3               	movwi [3]fsr1
  6081                           
  6082                           ;main.c: 325:    env_state[chan] = 2;
  6083  00CD  3002               	movlw	2
  6084  00CE  00F1               	movwf	??_envelope_control
  6085  00CF  087D               	movf	envelope_control@chan,w
  6086  00D0  3E3E               	addlw	(low (_env_state| 0))& (0+255)
  6087  00D1  0086               	movwf	6
  6088  00D2  0187               	clrf	7
  6089  00D3  0871               	movf	??_envelope_control,w
  6090  00D4  0081               	movwf	1
  6091  00D5  29F2               	goto	i1l449
  6092  00D6                     i1l1656:
  6093                           
  6094                           ;main.c: 332:  if(env_state[chan] == 2) {
  6095  00D6  087D               	movf	envelope_control@chan,w
  6096  00D7  3E3E               	addlw	(low (_env_state| 0))& (0+255)
  6097  00D8  0086               	movwf	6
  6098  00D9  0187               	clrf	7
  6099  00DA  3002               	movlw	2
  6100  00DB  0601               	xorwf	1,w
  6101  00DC  1D03               	btfss	3,2
  6102  00DD  28DF               	goto	u54_21
  6103  00DE  28E0               	goto	u54_20
  6104  00DF                     u54_21:
  6105  00DF  2966               	goto	i1l1664
  6106  00E0                     u54_20:
  6107  00E0                     i1l1658:
  6108                           
  6109                           ;main.c: 333:   env_level[chan] -= decay[chan];
  6110  00E0  357D               	lslf	envelope_control@chan,w
  6111  00E1  3E34               	addlw	(low (_decay| 0))& (0+255)
  6112  00E2  0086               	movwf	6
  6113  00E3  0187               	clrf	7
  6114  00E4  3F40               	moviw [0]fsr1
  6115  00E5  00F1               	movwf	??_envelope_control
  6116  00E6  3F41               	moviw [1]fsr1
  6117  00E7  00F2               	movwf	??_envelope_control+1
  6118  00E8  0871               	movf	??_envelope_control,w
  6119  00E9  00F3               	movwf	??_envelope_control+2
  6120  00EA  0872               	movf	??_envelope_control+1,w
  6121  00EB  00F4               	movwf	??_envelope_control+3
  6122  00EC  01F5               	clrf	??_envelope_control+4
  6123  00ED  01F6               	clrf	??_envelope_control+5
  6124  00EE  087D               	movf	envelope_control@chan,w
  6125  00EF  00F7               	movwf	??_envelope_control+6
  6126  00F0  3001               	movlw	1
  6127  00F1                     u55_25:
  6128  00F1  35F7               	lslf	??_envelope_control+6,f
  6129  00F2  3EFF               	addlw	-1
  6130  00F3  1D03               	skipz
  6131  00F4  28F1               	goto	u55_25
  6132  00F5  3577               	lslf	??_envelope_control+6,w
  6133  00F6  3E20               	addlw	(low (_env_level| 0))& (0+255)
  6134  00F7  0086               	movwf	6
  6135  00F8  0187               	clrf	7
  6136  00F9  0873               	movf	??_envelope_control+2,w
  6137  00FA  0281               	subwf	1,f
  6138  00FB  3141               	addfsr 1,1
  6139  00FC  0874               	movf	??_envelope_control+3,w
  6140  00FD  3B81               	subwfb	1,f
  6141  00FE  3141               	addfsr 1,1
  6142  00FF  0875               	movf	??_envelope_control+4,w
  6143  0100  3B81               	subwfb	1,f
  6144  0101  3141               	addfsr 1,1
  6145  0102  0876               	movf	??_envelope_control+5,w
  6146  0103  3B81               	subwfb	1,f
  6147  0104  317D               	addfsr 1,-3
  6148                           
  6149                           ;main.c: 335:   if(env_level[chan] < sustain[chan]) {
  6150  0105  357D               	lslf	envelope_control@chan,w
  6151  0106  3E30               	addlw	(low (_sustain| 0))& (0+255)
  6152  0107  0086               	movwf	6
  6153  0108  0187               	clrf	7
  6154  0109  3F40               	moviw [0]fsr1
  6155  010A  00F1               	movwf	??_envelope_control
  6156  010B  3F41               	moviw [1]fsr1
  6157  010C  00F2               	movwf	??_envelope_control+1
  6158  010D  0871               	movf	??_envelope_control,w
  6159  010E  00F3               	movwf	??_envelope_control+2
  6160  010F  0872               	movf	??_envelope_control+1,w
  6161  0110  00F4               	movwf	??_envelope_control+3
  6162  0111  01F5               	clrf	??_envelope_control+4
  6163  0112  01F6               	clrf	??_envelope_control+5
  6164  0113  087D               	movf	envelope_control@chan,w
  6165  0114  00F7               	movwf	??_envelope_control+6
  6166  0115  3001               	movlw	1
  6167  0116                     u56_25:
  6168  0116  35F7               	lslf	??_envelope_control+6,f
  6169  0117  3EFF               	addlw	-1
  6170  0118  1D03               	skipz
  6171  0119  2916               	goto	u56_25
  6172  011A  3577               	lslf	??_envelope_control+6,w
  6173  011B  3E20               	addlw	(low (_env_level| 0))& (0+255)
  6174  011C  0086               	movwf	6
  6175  011D  0187               	clrf	7
  6176  011E  3F40               	moviw [0]fsr1
  6177  011F  00F8               	movwf	??_envelope_control+7
  6178  0120  3F41               	moviw [1]fsr1
  6179  0121  00F9               	movwf	??_envelope_control+8
  6180  0122  3F42               	moviw [2]fsr1
  6181  0123  00FA               	movwf	??_envelope_control+9
  6182  0124  3F43               	moviw [3]fsr1
  6183  0125  00FB               	movwf	??_envelope_control+10
  6184  0126  087B               	movf	??_envelope_control+10,w
  6185  0127  3A80               	xorlw	128
  6186  0128  00FC               	movwf	??_envelope_control+11
  6187  0129  0876               	movf	??_envelope_control+5,w
  6188  012A  3A80               	xorlw	128
  6189  012B  027C               	subwf	??_envelope_control+11,w
  6190  012C  1D03               	skipz
  6191  012D  2938               	goto	u57_23
  6192  012E  0875               	movf	??_envelope_control+4,w
  6193  012F  027A               	subwf	??_envelope_control+9,w
  6194  0130  1D03               	skipz
  6195  0131  2938               	goto	u57_23
  6196  0132  0874               	movf	??_envelope_control+3,w
  6197  0133  0279               	subwf	??_envelope_control+8,w
  6198  0134  1D03               	skipz
  6199  0135  2938               	goto	u57_23
  6200  0136  0873               	movf	??_envelope_control+2,w
  6201  0137  0278               	subwf	??_envelope_control+7,w
  6202  0138                     u57_23:
  6203  0138  1803               	skipnc
  6204  0139  293B               	goto	u57_21
  6205  013A  293C               	goto	u57_20
  6206  013B                     u57_21:
  6207  013B  29F2               	goto	i1l449
  6208  013C                     u57_20:
  6209  013C                     i1l1660:
  6210                           
  6211                           ;main.c: 336:    env_level[chan] = sustain[chan];
  6212  013C  357D               	lslf	envelope_control@chan,w
  6213  013D  3E30               	addlw	(low (_sustain| 0))& (0+255)
  6214  013E  0086               	movwf	6
  6215  013F  0187               	clrf	7
  6216  0140  3F40               	moviw [0]fsr1
  6217  0141  00F1               	movwf	??_envelope_control
  6218  0142  3F41               	moviw [1]fsr1
  6219  0143  00F2               	movwf	??_envelope_control+1
  6220  0144  0871               	movf	??_envelope_control,w
  6221  0145  00F3               	movwf	??_envelope_control+2
  6222  0146  0872               	movf	??_envelope_control+1,w
  6223  0147  00F4               	movwf	??_envelope_control+3
  6224  0148  01F5               	clrf	??_envelope_control+4
  6225  0149  01F6               	clrf	??_envelope_control+5
  6226  014A  087D               	movf	envelope_control@chan,w
  6227  014B  00F7               	movwf	??_envelope_control+6
  6228  014C  3001               	movlw	1
  6229  014D                     u58_25:
  6230  014D  35F7               	lslf	??_envelope_control+6,f
  6231  014E  3EFF               	addlw	-1
  6232  014F  1D03               	skipz
  6233  0150  294D               	goto	u58_25
  6234  0151  3577               	lslf	??_envelope_control+6,w
  6235  0152  3E20               	addlw	(low (_env_level| 0))& (0+255)
  6236  0153  0086               	movwf	6
  6237  0154  0187               	clrf	7
  6238  0155  0873               	movf	??_envelope_control+2,w
  6239  0156  3FC0               	movwi [0]fsr1
  6240  0157  0874               	movf	??_envelope_control+3,w
  6241  0158  3FC1               	movwi [1]fsr1
  6242  0159  0875               	movf	??_envelope_control+4,w
  6243  015A  3FC2               	movwi [2]fsr1
  6244  015B  0876               	movf	??_envelope_control+5,w
  6245  015C  3FC3               	movwi [3]fsr1
  6246                           
  6247                           ;main.c: 337:    env_state[chan] = 3;
  6248  015D  3003               	movlw	3
  6249  015E  00F1               	movwf	??_envelope_control
  6250  015F  087D               	movf	envelope_control@chan,w
  6251  0160  3E3E               	addlw	(low (_env_state| 0))& (0+255)
  6252  0161  0086               	movwf	6
  6253  0162  0187               	clrf	7
  6254  0163  0871               	movf	??_envelope_control,w
  6255  0164  0081               	movwf	1
  6256  0165  29F2               	goto	i1l449
  6257  0166                     i1l1664:
  6258                           
  6259                           ;main.c: 342:  if(env_state[chan] == 3) {
  6260  0166  087D               	movf	envelope_control@chan,w
  6261  0167  3E3E               	addlw	(low (_env_state| 0))& (0+255)
  6262  0168  0086               	movwf	6
  6263  0169  0187               	clrf	7
  6264  016A  3003               	movlw	3
  6265  016B  0601               	xorwf	1,w
  6266  016C  1D03               	btfss	3,2
  6267  016D  296F               	goto	u59_21
  6268  016E  2970               	goto	u59_20
  6269  016F                     u59_21:
  6270  016F  2992               	goto	i1l1670
  6271  0170                     u59_20:
  6272  0170                     i1l1666:
  6273                           
  6274                           ;main.c: 344:   env_level[chan] = sustain[chan];
  6275  0170  357D               	lslf	envelope_control@chan,w
  6276  0171  3E30               	addlw	(low (_sustain| 0))& (0+255)
  6277  0172  0086               	movwf	6
  6278  0173  0187               	clrf	7
  6279  0174  3F40               	moviw [0]fsr1
  6280  0175  00F1               	movwf	??_envelope_control
  6281  0176  3F41               	moviw [1]fsr1
  6282  0177  00F2               	movwf	??_envelope_control+1
  6283  0178  0871               	movf	??_envelope_control,w
  6284  0179  00F3               	movwf	??_envelope_control+2
  6285  017A  0872               	movf	??_envelope_control+1,w
  6286  017B  00F4               	movwf	??_envelope_control+3
  6287  017C  01F5               	clrf	??_envelope_control+4
  6288  017D  01F6               	clrf	??_envelope_control+5
  6289  017E  087D               	movf	envelope_control@chan,w
  6290  017F  00F7               	movwf	??_envelope_control+6
  6291  0180  3001               	movlw	1
  6292  0181                     u60_25:
  6293  0181  35F7               	lslf	??_envelope_control+6,f
  6294  0182  3EFF               	addlw	-1
  6295  0183  1D03               	skipz
  6296  0184  2981               	goto	u60_25
  6297  0185  3577               	lslf	??_envelope_control+6,w
  6298  0186  3E20               	addlw	(low (_env_level| 0))& (0+255)
  6299  0187  0086               	movwf	6
  6300  0188  0187               	clrf	7
  6301  0189  0873               	movf	??_envelope_control+2,w
  6302  018A  3FC0               	movwi [0]fsr1
  6303  018B  0874               	movf	??_envelope_control+3,w
  6304  018C  3FC1               	movwi [1]fsr1
  6305  018D  0875               	movf	??_envelope_control+4,w
  6306  018E  3FC2               	movwi [2]fsr1
  6307  018F  0876               	movf	??_envelope_control+5,w
  6308  0190  3FC3               	movwi [3]fsr1
  6309  0191  29F2               	goto	i1l449
  6310  0192                     i1l1670:
  6311                           
  6312                           ;main.c: 348:  if(env_state[chan] == 4) {
  6313  0192  087D               	movf	envelope_control@chan,w
  6314  0193  3E3E               	addlw	(low (_env_state| 0))& (0+255)
  6315  0194  0086               	movwf	6
  6316  0195  0187               	clrf	7
  6317  0196  3004               	movlw	4
  6318  0197  0601               	xorwf	1,w
  6319  0198  1D03               	btfss	3,2
  6320  0199  299B               	goto	u61_21
  6321  019A  299C               	goto	u61_20
  6322  019B                     u61_21:
  6323  019B  29F2               	goto	i1l449
  6324  019C                     u61_20:
  6325  019C                     i1l1672:
  6326                           
  6327                           ;main.c: 349:   env_level[chan] -= release[chan];
  6328  019C  357D               	lslf	envelope_control@chan,w
  6329  019D  3E2C               	addlw	(low (_release| 0))& (0+255)
  6330  019E  0086               	movwf	6
  6331  019F  0187               	clrf	7
  6332  01A0  3F40               	moviw [0]fsr1
  6333  01A1  00F1               	movwf	??_envelope_control
  6334  01A2  3F41               	moviw [1]fsr1
  6335  01A3  00F2               	movwf	??_envelope_control+1
  6336  01A4  0871               	movf	??_envelope_control,w
  6337  01A5  00F3               	movwf	??_envelope_control+2
  6338  01A6  0872               	movf	??_envelope_control+1,w
  6339  01A7  00F4               	movwf	??_envelope_control+3
  6340  01A8  01F5               	clrf	??_envelope_control+4
  6341  01A9  01F6               	clrf	??_envelope_control+5
  6342  01AA  087D               	movf	envelope_control@chan,w
  6343  01AB  00F7               	movwf	??_envelope_control+6
  6344  01AC  3001               	movlw	1
  6345  01AD                     u62_25:
  6346  01AD  35F7               	lslf	??_envelope_control+6,f
  6347  01AE  3EFF               	addlw	-1
  6348  01AF  1D03               	skipz
  6349  01B0  29AD               	goto	u62_25
  6350  01B1  3577               	lslf	??_envelope_control+6,w
  6351  01B2  3E20               	addlw	(low (_env_level| 0))& (0+255)
  6352  01B3  0086               	movwf	6
  6353  01B4  0187               	clrf	7
  6354  01B5  0873               	movf	??_envelope_control+2,w
  6355  01B6  0281               	subwf	1,f
  6356  01B7  3141               	addfsr 1,1
  6357  01B8  0874               	movf	??_envelope_control+3,w
  6358  01B9  3B81               	subwfb	1,f
  6359  01BA  3141               	addfsr 1,1
  6360  01BB  0875               	movf	??_envelope_control+4,w
  6361  01BC  3B81               	subwfb	1,f
  6362  01BD  3141               	addfsr 1,1
  6363  01BE  0876               	movf	??_envelope_control+5,w
  6364  01BF  3B81               	subwfb	1,f
  6365  01C0  317D               	addfsr 1,-3
  6366  01C1                     i1l1674:
  6367                           
  6368                           ;main.c: 351:         _delay((unsigned long)((400)*(8000000/4000000.0)));
  6369  01C1  30A0               	movlw	160
  6370  01C2                     u78_27:
  6371  01C2  3200               	nop2
  6372  01C3  0B89               	decfsz	9,f
  6373  01C4  29C2               	goto	u78_27
  6374  01C5                     i1l1676:
  6375                           
  6376                           ;main.c: 353:   if(env_level[chan] < 0) {
  6377  01C5  087D               	movf	envelope_control@chan,w
  6378  01C6  00F1               	movwf	??_envelope_control
  6379  01C7  3001               	movlw	1
  6380  01C8                     u63_25:
  6381  01C8  35F1               	lslf	??_envelope_control,f
  6382  01C9  3EFF               	addlw	-1
  6383  01CA  1D03               	skipz
  6384  01CB  29C8               	goto	u63_25
  6385  01CC  3571               	lslf	??_envelope_control,w
  6386  01CD  3E20               	addlw	(low (_env_level| 0))& (0+255)
  6387  01CE  0086               	movwf	6
  6388  01CF  0187               	clrf	7
  6389  01D0  3F40               	moviw [0]fsr1
  6390  01D1  00F2               	movwf	??_envelope_control+1
  6391  01D2  3F41               	moviw [1]fsr1
  6392  01D3  00F3               	movwf	??_envelope_control+2
  6393  01D4  3F42               	moviw [2]fsr1
  6394  01D5  00F4               	movwf	??_envelope_control+3
  6395  01D6  3F43               	moviw [3]fsr1
  6396  01D7  00F5               	movwf	??_envelope_control+4
  6397  01D8  1FF5               	btfss	??_envelope_control+4,7
  6398  01D9  29DB               	goto	u64_21
  6399  01DA  29DC               	goto	u64_20
  6400  01DB                     u64_21:
  6401  01DB  29F2               	goto	i1l449
  6402  01DC                     u64_20:
  6403  01DC                     i1l1678:
  6404                           
  6405                           ;main.c: 354:    env_level[chan] = 0;
  6406  01DC  087D               	movf	envelope_control@chan,w
  6407  01DD  00F1               	movwf	??_envelope_control
  6408  01DE  3001               	movlw	1
  6409  01DF                     u65_25:
  6410  01DF  35F1               	lslf	??_envelope_control,f
  6411  01E0  3EFF               	addlw	-1
  6412  01E1  1D03               	skipz
  6413  01E2  29DF               	goto	u65_25
  6414  01E3  3571               	lslf	??_envelope_control,w
  6415  01E4  3E20               	addlw	(low (_env_level| 0))& (0+255)
  6416  01E5  0086               	movwf	6
  6417  01E6  0187               	clrf	7
  6418  01E7  3000               	movlw	0
  6419  01E8  3FC0               	movwi [0]fsr1
  6420  01E9  3000               	movlw	0
  6421  01EA  3FC1               	movwi [1]fsr1
  6422  01EB  3FC2               	movwi [2]fsr1
  6423  01EC  3FC3               	movwi [3]fsr1
  6424                           
  6425                           ;main.c: 355:    env_state[chan] = 0;
  6426  01ED  087D               	movf	envelope_control@chan,w
  6427  01EE  3E3E               	addlw	(low (_env_state| 0))& (0+255)
  6428  01EF  0086               	movwf	6
  6429  01F0  0187               	clrf	7
  6430  01F1  0181               	clrf	1
  6431  01F2                     i1l449:
  6432  01F2  0008               	return
  6433  01F3                     __end_of_envelope_control:
  6434  007E                     btemp	set	126	;btemp
  6435  007E                     int$flags	set	126
  6436  007E                     wtemp0	set	126
  6437                           
  6438                           	psect	config
  6439                           
  6440                           ;Config register CONFIG1 @ 0x8007
  6441                           ;	FEXTOSC External Oscillator mode Selection bits
  6442                           ;	FEXTOSC = OFF, Oscillator not enabled
  6443                           ;	Power-up default value for COSC bits
  6444                           ;	RSTOSC = HFINT32, HFINTOSC with 2x PLL (32MHz)
  6445                           ;	Clock Out Enable bit
  6446                           ;	CLKOUTEN = OFF, CLKOUT function is disabled; I/O or oscillator function on OSC2
  6447                           ;	Clock Switch Enable bit
  6448                           ;	CSWEN = OFF, The NOSC and NDIV bits cannot be changed by user software
  6449                           ;	Fail-Safe Clock Monitor Enable
  6450                           ;	FCMEN = OFF, Fail-Safe Clock Monitor is disabled
  6451  8007                     	org	32775
  6452  8007  178C               	dw	6028
  6453                           
  6454                           ;Config register CONFIG2 @ 0x8008
  6455                           ;	Master Clear Enable bit
  6456                           ;	MCLRE = OFF, MCLR/VPP pin function is digital input; MCLR internally disabled; Weak pu
      +                          ll-up under control of port pin's WPU control bit.
  6457                           ;	Power-up Timer Enable bit
  6458                           ;	PWRTE = ON, PWRT enabled
  6459                           ;	Watchdog Timer Enable bits
  6460                           ;	WDTE = OFF, WDT disabled; SWDTEN is ignored
  6461                           ;	Low-power BOR enable bit
  6462                           ;	LPBOREN = OFF, ULPBOR disabled
  6463                           ;	Brown-out Reset Enable bits
  6464                           ;	BOREN = OFF, Brown-out Reset disabled
  6465                           ;	Brown-out Reset Voltage selection bit
  6466                           ;	BORV = LOW, Brown-out voltage (Vbor) set to 2.45V
  6467                           ;	PPSLOCK bit One-Way Set Enable bit
  6468                           ;	PPS1WAY = ON, The PPSLOCK bit can be cleared and set only once; PPS registers remain l
      +                          ocked after one clear/set cycle
  6469                           ;	Stack Overflow/Underflow Reset Enable bit
  6470                           ;	STVREN = ON, Stack Overflow or Underflow will cause a Reset
  6471                           ;	Debugger enable bit
  6472                           ;	DEBUG = OFF, Background debugger disabled
  6473  8008                     	org	32776
  6474  8008  3F30               	dw	16176
  6475                           
  6476                           ;Config register CONFIG3 @ 0x8009
  6477                           ;	User NVM self-write protection bits
  6478                           ;	WRT = OFF, Write protection off
  6479                           ;	Low Voltage Programming Enable bit
  6480                           ;	LVP = OFF, High Voltage on MCLR/VPP must be used for programming.
  6481  8009                     	org	32777
  6482  8009  1FFF               	dw	8191
  6483                           
  6484                           ;Config register CONFIG4 @ 0x800A
  6485                           ;	User NVM Program Memory Code Protection bit
  6486                           ;	CP = OFF, User NVM code protection disabled
  6487                           ;	Data NVM Memory Code Protection bit
  6488                           ;	CPD = OFF, Data NVM code protection disabled
  6489  800A                     	org	32778
  6490  800A  3FFF               	dw	16383

Data Sizes:
    Strings     0
    Constant    4
    Data        4
    BSS         34
    Persistent  34
    Stack       0

Auto Spaces:
    Space          Size  Autos    Used
    COMMON           14     14      14
    BANK0            80     19      59
    BANK1            80      0       0
    BANK2            80      0       0
    BANK3            80      0       0
    BANK4            80      0       0
    BANK5            80      0       0
    BANK6            16      0       0

Pointer List with Targets:

    ADC_InterruptHandler	PTR FTN()void  size(2) Largest target is 1
		 -> Absolute function(), 

    TMR2_SetInterruptHandler@InterruptHandler	PTR FTN()void  size(2) Largest target is 1
		 -> Timer2ISR(), TMR2_DefaultInterruptHandler(), 

    TMR2_InterruptHandler	PTR FTN()void  size(2) Largest target is 1
		 -> Timer2ISR(), Absolute function(), TMR2_DefaultInterruptHandler(), 


Critical Paths under _main in COMMON

    None.

Critical Paths under _INTERRUPT_InterruptManager in COMMON

    _Timer2ISR->_envelope_control

Critical Paths under _main in BANK0

    _main->_time_lookup
    _time_lookup->_FLASH_ReadWord
    _TMR2_Initialize->_TMR2_SetInterruptHandler

Critical Paths under _INTERRUPT_InterruptManager in BANK0

    _TMR2_ISR->_Timer2ISR

Critical Paths under _main in BANK1

    None.

Critical Paths under _INTERRUPT_InterruptManager in BANK1

    None.

Critical Paths under _main in BANK2

    None.

Critical Paths under _INTERRUPT_InterruptManager in BANK2

    None.

Critical Paths under _main in BANK3

    None.

Critical Paths under _INTERRUPT_InterruptManager in BANK3

    None.

Critical Paths under _main in BANK4

    None.

Critical Paths under _INTERRUPT_InterruptManager in BANK4

    None.

Critical Paths under _main in BANK5

    None.

Critical Paths under _INTERRUPT_InterruptManager in BANK5

    None.

Critical Paths under _main in BANK6

    None.

Critical Paths under _INTERRUPT_InterruptManager in BANK6

    None.

Call Graph Tables:

 ---------------------------------------------------------------------------------
 (Depth) Function   	        Calls       Base Space   Used Autos Params    Refs
 ---------------------------------------------------------------------------------
 (0) _main                                                 4     4      0    1161
                                             15 BANK0      4     4      0
                  _ADC_GetConversion
                  _SYSTEM_Initialize
           _TMR2_SetInterruptHandler
                           _load_dac
                        _time_lookup
 ---------------------------------------------------------------------------------
 (1) _time_lookup                                          7     5      2     362
                                              8 BANK0      7     5      2
                     _FLASH_ReadWord
 ---------------------------------------------------------------------------------
 (2) _FLASH_ReadWord                                       3     1      2     295
                                              5 BANK0      3     1      2
 ---------------------------------------------------------------------------------
 (1) _load_dac                                             8     6      2     339
                                              5 BANK0      8     6      2
 ---------------------------------------------------------------------------------
 (1) _SYSTEM_Initialize                                    0     0      0     174
                     _ADC_Initialize
              _OSCILLATOR_Initialize
             _PIN_MANAGER_Initialize
                     _PMD_Initialize
                    _SPI1_Initialize
                    _TMR2_Initialize
                     _WDT_Initialize
 ---------------------------------------------------------------------------------
 (2) _WDT_Initialize                                       0     0      0       0
 ---------------------------------------------------------------------------------
 (2) _TMR2_Initialize                                      0     0      0     174
           _TMR2_SetInterruptHandler
 ---------------------------------------------------------------------------------
 (1) _TMR2_SetInterruptHandler                             2     0      2     174
                                              5 BANK0      2     0      2
 ---------------------------------------------------------------------------------
 (2) _SPI1_Initialize                                      0     0      0       0
 ---------------------------------------------------------------------------------
 (2) _PMD_Initialize                                       0     0      0       0
 ---------------------------------------------------------------------------------
 (2) _PIN_MANAGER_Initialize                               0     0      0       0
 ---------------------------------------------------------------------------------
 (2) _OSCILLATOR_Initialize                                0     0      0       0
 ---------------------------------------------------------------------------------
 (2) _ADC_Initialize                                       0     0      0       0
 ---------------------------------------------------------------------------------
 (1) _ADC_GetConversion                                    5     3      2      22
                                              5 BANK0      5     3      2
 ---------------------------------------------------------------------------------
 Estimated maximum stack depth 2
 ---------------------------------------------------------------------------------
 (Depth) Function   	        Calls       Base Space   Used Autos Params    Refs
 ---------------------------------------------------------------------------------
 (4) _INTERRUPT_InterruptManager                           0     0      0     943
                           _TMR2_ISR
 ---------------------------------------------------------------------------------
 (5) _TMR2_ISR                                             0     0      0     943
                   Absolute function *
       _TMR2_DefaultInterruptHandler *
                          _Timer2ISR *
 ---------------------------------------------------------------------------------
 (6) _Timer2ISR                                            5     5      0     943
                                              0 BANK0      5     5      0
                   _envelope_control
                         i1_load_dac
 ---------------------------------------------------------------------------------
 (7) i1_load_dac                                           8     6      2     163
                                              0 COMMON     8     6      2
 ---------------------------------------------------------------------------------
 (7) _envelope_control                                    14    13      1     780
                                              0 COMMON    14    13      1
 ---------------------------------------------------------------------------------
 (6) _TMR2_DefaultInterruptHandler                         0     0      0       0
 ---------------------------------------------------------------------------------
 (6) Absolute function(Fake)                               0     0      0       0
 ---------------------------------------------------------------------------------
 Estimated maximum stack depth 7
 ---------------------------------------------------------------------------------

 Call Graph Graphs:

 _main (ROOT)
   _ADC_GetConversion
   _SYSTEM_Initialize
     _ADC_Initialize
     _OSCILLATOR_Initialize
     _PIN_MANAGER_Initialize
     _PMD_Initialize
     _SPI1_Initialize
     _TMR2_Initialize
       _TMR2_SetInterruptHandler
     _WDT_Initialize
   _TMR2_SetInterruptHandler
   _load_dac
   _time_lookup
     _FLASH_ReadWord

 _INTERRUPT_InterruptManager (ROOT)
   _TMR2_ISR
     Absolute function(Fake) *
     _TMR2_DefaultInterruptHandler *
     _Timer2ISR *
       _envelope_control
       i1_load_dac

 Address spaces:
Name               Size   Autos  Total    Cost      Usage
BIGRAM             1F0      0       0       0        0.0%
EEDATA             100      0       0       0        0.0%
NULL                 0      0       0       0        0.0%
CODE                 0      0       0       0        0.0%
BITCOMMON            E      0       0       1        0.0%
BITSFR0              0      0       0       1        0.0%
SFR0                 0      0       0       1        0.0%
COMMON               E      E       E       2      100.0%
BITSFR1              0      0       0       2        0.0%
SFR1                 0      0       0       2        0.0%
BITSFR2              0      0       0       3        0.0%
SFR2                 0      0       0       3        0.0%
STACK                0      0       0       3        0.0%
BITSFR3              0      0       0       4        0.0%
SFR3                 0      0       0       4        0.0%
ABS                  0      0      49       4        0.0%
BITBANK0            50      0       0       5        0.0%
BITSFR4              0      0       0       5        0.0%
SFR4                 0      0       0       5        0.0%
BANK0               50     13      3B       6       73.8%
BITSFR5              0      0       0       6        0.0%
SFR5                 0      0       0       6        0.0%
BITBANK1            50      0       0       7        0.0%
BITSFR6              0      0       0       7        0.0%
SFR6                 0      0       0       7        0.0%
BANK1               50      0       0       8        0.0%
BITSFR7              0      0       0       8        0.0%
SFR7                 0      0       0       8        0.0%
BITBANK2            50      0       0       9        0.0%
BITSFR8              0      0       0       9        0.0%
SFR8                 0      0       0       9        0.0%
BANK2               50      0       0      10        0.0%
BITSFR9              0      0       0      10        0.0%
SFR9                 0      0       0      10        0.0%
BITBANK3            50      0       0      11        0.0%
BITSFR10             0      0       0      11        0.0%
SFR10                0      0       0      11        0.0%
BANK3               50      0       0      12        0.0%
BITSFR11             0      0       0      12        0.0%
SFR11                0      0       0      12        0.0%
BITBANK4            50      0       0      13        0.0%
BITSFR12             0      0       0      13        0.0%
SFR12                0      0       0      13        0.0%
BANK4               50      0       0      14        0.0%
BITSFR13             0      0       0      14        0.0%
SFR13                0      0       0      14        0.0%
BITBANK5            50      0       0      15        0.0%
BITSFR14             0      0       0      15        0.0%
SFR14                0      0       0      15        0.0%
BANK5               50      0       0      16        0.0%
BITSFR15             0      0       0      16        0.0%
SFR15                0      0       0      16        0.0%
BITBANK6            10      0       0      17        0.0%
BITSFR16             0      0       0      17        0.0%
SFR16                0      0       0      17        0.0%
BANK6               10      0       0      18        0.0%
BITSFR17             0      0       0      18        0.0%
SFR17                0      0       0      18        0.0%
BITSFR18             0      0       0      19        0.0%
SFR18                0      0       0      19        0.0%
DATA                 0      0      49      19        0.0%
BITSFR19             0      0       0      20        0.0%
SFR19                0      0       0      20        0.0%
BITSFR20             0      0       0      21        0.0%
SFR20                0      0       0      21        0.0%
BITSFR21             0      0       0      22        0.0%
SFR21                0      0       0      22        0.0%
BITSFR22             0      0       0      23        0.0%
SFR22                0      0       0      23        0.0%
BITSFR23             0      0       0      24        0.0%
SFR23                0      0       0      24        0.0%
BITSFR24             0      0       0      25        0.0%
SFR24                0      0       0      25        0.0%
BITSFR25             0      0       0      26        0.0%
SFR25                0      0       0      26        0.0%
BITSFR26             0      0       0      27        0.0%
SFR26                0      0       0      27        0.0%
BITSFR27             0      0       0      28        0.0%
SFR27                0      0       0      28        0.0%
BITSFR28             0      0       0      29        0.0%
SFR28                0      0       0      29        0.0%
BITSFR29             0      0       0      30        0.0%
SFR29                0      0       0      30        0.0%
BITSFR30             0      0       0      31        0.0%
SFR30                0      0       0      31        0.0%
BITSFR31             0      0       0      32        0.0%
SFR31                0      0       0      32        0.0%


Microchip Technology PIC Macro Assembler V2.31 build 20201012212115 
Symbol Table                                                                                   Wed May 26 22:27:38 2021

                          _time08_absaddr 0880          __end_of_TMR2_SetInterruptHandler 048B  
                          _time09_absaddr 0890                                        l53 0325  
                                      l97 043F                                       l100 0475  
                                     l103 0492                                       l106 046C  
                                     l140 03E5                                       l125 047E  
                                     l143 03F1                                       l224 0429  
                                     l307 048A                                       l423 02ED  
                                     l440 0342                                       l441 0355  
                                     l169 0411                                       l285 0452  
                                     l462 0381                                       _PR2 001E  
                                     u700 0339                                       u701 0338  
                                     u680 03E9                                       u681 03E8  
                                     u777 03E0                   __size_of_PMD_Initialize 000C  
                         _TMR2_Initialize 0440                                       wreg 0009  
                                    l1710 02FA                                      l1630 0485  
                                    l1720 0308                                      l1712 02FC  
                                    l1704 02F1                                      l1800 042A  
                                    l1810 03E9                                      l1802 03D2  
                                    l1722 030A                                      l1714 0302  
                                    l1706 02F5                                      l1730 0469  
                                    l1804 03DE                                      l1724 030B  
                                    l1716 0304                                      l1708 02F8  
                                    l1740 0427                                      l1732 0412  
                                    l1820 0328                                      l1900 0226  
                                    l1806 03DF                                      l1742 046D  
                                    l1718 0306                                      l1726 0461  
                                    l1734 0423                                      l1750 048F  
                                    l1830 0339                                      l1822 032C  
                                    l1910 023A                                      l1902 022A  
                                    l1808 03E3                                      l1760 047C  
                                    l1752 0476                                      l1744 0470  
                                    l1728 0468                                      l1736 0425  
                                    l1840 0353                                      l1832 033E  
                                    l1824 0330                                      l1920 0246  
                                    l1912 023E                                      l1904 022E  
                                    l1754 0479                                      l1746 0471  
                                    l1738 0426                                      l1770 0447  
                                    l1762 0440                                      l1834 0348  
                                    l1826 0332                                      l1842 0358  
                                    l1930 0275                                      l1922 024E  
                                    l1914 0242                                      l1906 0232  
                                    l1756 047A                                      l1748 0474  
                                    l1772 044F                                      l1764 0443  
                                    l1836 034A                                      l1828 0333  
                                    l1780 03FB                                      l1844 0379  
                                    l1940 0297                                      l1932 0276  
                                    l1924 024F                                      l1916 0243  
                                    l1908 0236                                      l1758 047B  
                                    l1766 0444                                      l1838 034F  
                                    l1790 0403                                      l1782 03FF  
                                    l1774 03F2                                      l1942 02A1  
                                    l1934 0278                                      l1926 025F  
                                    l1918 0244                                      l1768 0445  
                                    l1792 0409                                      l1784 0400  
                                    l1776 03F7                                      l1944 02AB  
                                    l1936 0282                                      l1952 02CA  
                                    l1928 0265                                      l1880 0202  
                                    l1872 01F3                                      l1786 0401  
                                    l1778 03F8                                      l1946 02B5  
                                    l1938 028C                                      l1890 0210  
                                    l1882 020A                                      l1874 01F6  
                                    l1788 0402                                      l1948 02C0  
                                    l1892 0211                                      l1884 020C  
                                    l1876 01F8                                      l1894 0212  
                                    l1886 020D                                      l1878 01FA  
                                    l1984 02D3                                      l1896 021A  
                                    l1888 020F                                      l1898 0222  
                              i1_load_dac 0382                                      _LATA 010C  
                                    _LATB 010D                                      _LATC 010E  
                                    _PMD0 0911                                      _PMD1 0912  
                                    _PMD2 0913                                      _PMD3 0914  
                                    _PMD4 0915                                      _PMD5 0916  
                                    _TMR2 001D                                      _WPUA 020C  
                                    _WPUB 020D                                      _WPUC 020E  
                          __p_time00_text 0800                                      _main 01F3  
                          __p_time01_text 0810                            __p_time02_text 0820  
                          __p_time10_text 08A0                            __p_time03_text 0830  
                          __p_time11_text 08B0                                      fsr0h 0005  
                                    fsr1h 0007                                      indf0 0000  
                                    fsr0l 0004                                      indf1 0001  
                                    fsr1l 0006                            __p_time04_text 0840  
                          __p_time12_text 08C0                                      btemp 007E  
                          __p_time05_text 0850                            __p_time13_text 08D0  
                          __p_time06_text 0860                            __p_time14_text 08E0  
                          __p_time07_text 0870                            __p_time15_text 08F0  
                          __p_time08_text 0880                            __p_time09_text 0890  
                                    start 0019                              main@chan_sel 0054  
                       ?_envelope_control 0070            __size_of_OSCILLATOR_Initialize 0009  
           __end_of_OSCILLATOR_Initialize 0476                                     _ADACT 009F  
                                   ?_main 0070                        ??_envelope_control 0071  
                                   _T2CON 001F                                     i1l310 0493  
                                   i1l304 0460                                     i1l327 0017  
                                   i1l440 039C                                     i1l441 03AC  
                                   i1l450 0074                                     i1l436 03CF  
                                   i1l449 01F2                                     _OSCEN 091D  
                                   u50_25 008E                                     u51_25 00A4  
                                   u52_20 00BA                                     u44_20 003E  
                                   u52_21 00B9                                     u44_21 003D  
                                   u60_25 0181                                     u61_20 019C  
                                   u45_20 0044                                     u61_21 019B  
                                   u45_21 0043                                     u53_25 00BD  
                                   u54_20 00E0                                     u46_20 004D  
                                   u54_21 00DF                                     u46_21 004C  
                                   u62_25 01AD                                     u47_20 005E  
                                   u47_21 005D                                     u63_25 01C8  
                                   u55_25 00F1                                     u64_20 01DC  
                                   u48_20 0067                                     u72_20 000A  
                                   u64_21 01DB                                     u48_21 0066  
                                   u72_21 0009                                     u56_25 0116  
                                   u57_20 013C                                     u49_20 007D  
                                   u73_20 000F                                     u57_21 013B  
                                   u49_21 007C                                     u73_21 000E  
                                   u57_23 0138                                     _TRISA 008C  
                                   _TRISB 008D                                     u65_25 01DF  
                                   _TRISC 008E                                     u66_20 0393  
                                   u74_20 0014                                     u66_21 0392  
                                   u74_21 0013                                     u58_25 014D  
                                   u59_20 0170                                     u67_20 03C5  
                                   u59_21 016F                                     u67_25 03C1  
                                   u69_20 045B                                     u69_21 045A  
                                   u78_27 01C2                          __end_of_TMR2_ISR 0461  
                                   _decay 0034                            _WDT_Initialize 048F  
                                   pclath 000A                        i1load_dac@dac_bits 0077  
                                   status 0003                                     wtemp0 007E  
                __size_of_SPI1_Initialize 0018                           __initialization 001B  
                            __end_of_main 02F1                   __end_of_TMR2_Initialize 0453  
             ?_INTERRUPT_InterruptManager 0070                  _TMR2_SetInterruptHandler 0485  
                                  ??_main 0051                   __size_of_FLASH_ReadWord 0020  
                  __end_of_WDT_Initialize 0493                                    _ADCON0 009D  
                                  _ADCON1 009E                                    _ADRESH 009C  
                                  _ADRESL 009B                                    _ANSELA 018C  
                                  _ANSELB 018D                                    _ANSELC 018E  
                             ?i1_load_dac 0070                                    _RB6PPS 0E9E  
                                  _ODCONA 028C                                    _ODCONB 028D  
                                  _ODCONC 028E                                    i1l1700 03A8  
                                  i1l1702 03AA                                    i1l1640 0044  
                                  i1l1632 0038                                    i1l1650 007D  
                                  i1l1642 004D                                    _RC7PPS 0EA7  
                                  i1l1660 013C                                    i1l1652 00BA  
                                  i1l1644 0059                                    i1l1670 0192  
                                  i1l1646 005E                                    i1l1638 003F  
                                  i1l1814 0453                                    i1l1672 019C  
                                  i1l1664 0166                                    i1l1656 00D6  
                                  i1l1648 0067                                    i1l1816 0455  
                                  i1l1674 01C1                                    i1l1666 0170  
                                  i1l1658 00E0                                    i1l1690 038E  
                                  i1l1682 0383                                    i1l1818 045B  
                                  i1l1676 01C5                                    i1l1692 0393  
                                  i1l1684 0387                                    i1l1678 01DC  
                                  i1l1694 0398                                    i1l1686 038B  
                                  i1l1870 0014                                    i1l1696 03A2  
                                  i1l1688 038D                                    i1l1864 0006  
                                  i1l1698 03A4                                    i1l1866 000A  
                                  i1l1796 03AD                                    i1l1868 000F  
                                  i1l1798 03B6                                    _INLVLA 038C  
                                  _INLVLB 038D                                    _INLVLC 038E  
                                  _OSCFRQ 091F                                    _WDTCON 0097  
                             load_dac@val 0047                                    _attack 0038  
                        __end_of_load_dac 0356                                    _time00 0800  
                                  _time01 0810                                    _time02 0820  
                                  _time10 08A0                                    _time03 0830  
                                  _time11 08B0                                    _time04 0840  
                                  _time12 08C0                                    _time05 0850  
                                  _time13 08D0                                    _time06 0860  
                                  _time14 08E0                                    _time07 0870  
                                  _time15 08F0                                    _time08 0880  
                                  _time09 0890                        __size_of_Timer2ISR 0023  
                            ?_time_lookup 004A                            _PMD_Initialize 0461  
                 FLASH_ReadWord@flashAddr 0047                           ?_WDT_Initialize 0070  
                ADC_GetConversion@channel 004B  TMR2_SetInterruptHandler@InterruptHandler 0047  
                       _SYSTEM_Initialize 042A                   __end_of__initialization 0033  
                      ?_SYSTEM_Initialize 0070                            __pcstackCOMMON 0070  
                            __pidataBANK0 048B                       ??_SYSTEM_Initialize 0049  
                               ?_TMR2_ISR 0070                         ??_SPI1_Initialize 0047  
                        ?_TMR2_Initialize 0070                       __size_ofi1_load_dac 002B  
                  __end_of_PMD_Initialize 046D                        _spi1_configuration 0900  
               __end_of_SYSTEM_Initialize 0440                                __pbssBANK0 0020  
                       __end_of_Timer2ISR 03D0                                __pmaintext 01F3  
                              ??_TMR2_ISR 007E                                __pintentry 0004  
                         ?_PMD_Initialize 0070                                _gate_state 003C  
                 __size_of_ADC_Initialize 0009                            _FLASH_ReadWord 03F2  
                                 _OSCCON1 0919                                   _OSCCON3 091B  
                                 _NVMADRH 0892                                   _NVMADRL 0891  
                                 _NVMDATH 0894                                   _OSCTUNE 091E  
                                 _NVMDATL 0893                                   _NVMCON2 0896  
                                 _SSP1ADD 0212                                   _SLRCONA 030C  
                                 _SLRCONB 030D                                   _SLRCONC 030E  
                                 _SSP1BUF 0211                              load_dac@chan 004B  
               __size_of_envelope_control 01BC                                 ?_load_dac 0047  
                    _ADC_InterruptHandler 0040                ??_TMR2_SetInterruptHandler 0049  
                  __end_of_FLASH_ReadWord 0412                                   __ptext1 0356  
                                 __ptext2 03F2                                   __ptext3 0326  
                                 __ptext4 042A                                   __ptext5 048F  
                                 __ptext6 0440                                   __ptext7 0485  
                                 __ptext8 0412                                   __ptext9 0461  
                   _OSCILLATOR_Initialize 046D                                 _T2CONbits 001F  
                                 _release 002C                  ??_PIN_MANAGER_Initialize 0047  
                    __size_of_time_lookup 002C                __size_of_SYSTEM_Initialize 0016  
                                 clrloop0 0480                              ??i1_load_dac 0072  
                    end_of_initialization 0033                                   _sustain 0030  
                          i1load_dac@chan 0074                                ??_load_dac 0049  
               FLASH_ReadWord@GIEBitValue 0049                           ?_FLASH_ReadWord 0047  
                        ??_WDT_Initialize 0047                        __end_ofi1_load_dac 03AD  
                               _PORTAbits 000C                            load_dac@temp_h 004C  
                          load_dac@temp_l 004D                                 _TRISBbits 008D  
                               _TRISCbits 008E                           _SPI1_Initialize 0412  
    __end_of_TMR2_DefaultInterruptHandler 0494     __size_of_TMR2_DefaultInterruptHandler 0001  
            _TMR2_DefaultInterruptHandler 0493                         __size_of_TMR2_ISR 000E  
                          _ADC_Initialize 0476                    ?_OSCILLATOR_Initialize 0070  
                          __end_of_time00 0810                            __end_of_time01 0820  
                          __end_of_time02 0830                            __end_of_time10 08B0  
                          __end_of_time03 0840                            __end_of_time11 08C0  
                          __end_of_time04 0850                            __end_of_time12 08D0  
                          __end_of_time05 0860                            __end_of_time13 08E0  
                          __end_of_time06 0870                            __end_of_time14 08F0  
                          __end_of_time07 0880                            __end_of_time15 0900  
                          __end_of_time08 0890                            __end_of_time09 08A0  
                     start_initialization 001B           __size_of_PIN_MANAGER_Initialize 0035  
                        _envelope_control 0037                                 _Timer2ISR 03AD  
                        ??_PMD_Initialize 0047                    __end_of_ADC_Initialize 047F  
                             __pdataBANK0 0055             ?_TMR2_DefaultInterruptHandler 0070  
                               ___latbits 0001                             __pcstackBANK0 0042  
                __size_of_TMR2_Initialize 0013                                 _adc_chans 0055  
                 __end_of_SPI1_Initialize 042A                                 __pnvBANK0 0059  
                       __size_of_load_dac 0030                                ?_Timer2ISR 0070  
                  _PIN_MANAGER_Initialize 02F1                           ?_ADC_Initialize 0070  
            ??_INTERRUPT_InterruptManager 007E                                 _env_level 0020  
                               _env_state 003E                                  _LATBbits 010D  
                           i1load_dac@val 0070                                 clear_ram0 047F  
                                _PIE1bits 0091       __size_of_INTERRUPT_InterruptManager 0015  
                                _PIR1bits 0011                          ??_FLASH_ReadWord 0049  
                                _SSP1CON1 0215                                  _SSP1CON2 0216  
                                _TMR2_ISR 0453                                  _SSP1STAT 0214  
                              _ADCON0bits 009D                             ??_time_lookup 004C  
          ??_TMR2_DefaultInterruptHandler 0070         __size_of_TMR2_SetInterruptHandler 0006  
               ?_TMR2_SetInterruptHandler 0047                          ?_SPI1_Initialize 0070  
                         time_lookup@temp 004F                         ??_TMR2_Initialize 0049  
                        i1load_dac@temp_h 0075                          i1load_dac@temp_l 0076  
                             ??_Timer2ISR 0042                         _ADC_GetConversion 03D0  
                 ??_OSCILLATOR_Initialize 0047                  __end_of_envelope_control 01F3  
                      ?_ADC_GetConversion 0047                                  _adc_vals 0028  
                     ??_ADC_GetConversion 0049                                  __ptext10 02F1  
                                __ptext11 046D                                  __ptext12 0476  
                                __ptext13 03D0                                  __ptext15 0453  
                                __ptext16 0493                                  __ptext17 03AD  
                                __ptext18 0382                                  __ptext19 0037  
                            _SSP1CON1bits 0215                       __end_of_time_lookup 0382  
                                _load_dac 0326                             __size_of_main 00FE  
               __end_of_ADC_GetConversion 03F2                                  int$flags 007E  
      __end_of_INTERRUPT_InterruptManager 0019                _INTERRUPT_InterruptManager 0004  
                          time_lookup@val 0050                                _INTCONbits 000B  
                             _NVMCON1bits 0895                   __size_of_WDT_Initialize 0004  
                                intlevel1 0000                   ?_PIN_MANAGER_Initialize 0070  
                        ??_ADC_Initialize 0047                          load_dac@dac_bits 004E  
                           __pstringtext1 0900                      envelope_control@chan 007D  
                    envelope_control@gate 0070                                _SSP1DATPPS 0E21  
                              _SSP1CLKPPS 0E20                               _time_lookup 0356  
                          _time00_absaddr 0800                            _time01_absaddr 0810  
                          _time02_absaddr 0820                            _time10_absaddr 08A0  
          __end_of_PIN_MANAGER_Initialize 0326                            _time03_absaddr 0830  
                          _time11_absaddr 08B0                            _time04_absaddr 0840  
                          _time12_absaddr 08C0                     _TMR2_InterruptHandler 0059  
                          _time05_absaddr 0850                            _time13_absaddr 08D0  
              __size_of_ADC_GetConversion 0022                            _time06_absaddr 0860  
                          _time14_absaddr 08E0                __end_of_spi1_configuration 0904  
                          _time07_absaddr 0870                            _time15_absaddr 08F0  
